ccollections
defaultdict
p0
(c__builtin__
set
p1
tp2
Rp3
S'Ultimate Masters'
p4
g1
((lp5
S'Tarmogoyf'
p6
aS'Lord of Extinction'
p7
aS'Snapcaster Mage'
p8
aS'Ulamog, the Infinite Gyre'
p9
aS'Karakas'
p10
aS'Kozilek, Butcher of Truth'
p11
aS'Mikaeus, the Unhallowed'
p12
aS'Platinum Emperion'
p13
aS'Vengevine'
p14
aS'Mana Vault'
p15
aS'Emrakul, the Aeons Torn'
p16
aS'Dark Depths'
p17
aS'Balefire Dragon'
p18
aS'Temporal Manipulation'
p19
aS'Leovold, Emissary of Trest'
p20
aS'Bitterblossom'
p21
aS'Sigarda, Host of Herons'
p22
aS'Liliana of the Veil'
p23
aS'Cavern of Souls'
p24
aS'Karn Liberated'
p25
atp26
Rp27
sS'Oath of the Gatewatch Promos'
p28
g1
((lp29
S'Chandra, Flamecaller'
p30
aS'Nissa, Voice of Zendikar'
p31
aS'World Breaker'
p32
aS'Kozilek, the Great Distortion'
p33
aS'Sphinx of the Final Word'
p34
aS'Linvala, the Preserver'
p35
aS'Mirrorpool'
p36
aS'General Tazri'
p37
aS'Kalitas, Traitor of Ghet'
p38
aS"Kozilek's Return"
p39
aS'Inverter of Truth'
p40
aS'Crush of Tentacles'
p41
atp42
Rp43
sS'Kaladesh Inventions'
p44
g1
((lp45
S'Ensnaring Bridge'
p46
aS'Hangarback Walker'
p47
aS'Grindstone'
p48
aS'Engineered Explosives'
p49
aS'Duplicant'
p50
aS'Extraplanar Lens'
p51
aS'Gauntlet of Power'
p52
atp53
Rp54
sS'Guilds of Ravnica'
p55
g1
((lp56
S'Thousand-Year Storm'
p57
aS'Arclight Phoenix'
p58
aS'Vraska, Regal Gorgon'
p59
aS'Impervious Greatwurm'
p60
aS'Mnemonic Betrayal'
p61
aS'Dream Eater'
p62
aS'Vraska, Golgari Queen'
p63
aS'Chance for Glory'
p64
aS'March of the Multitudes'
p65
aS'Doom Whisperer'
p66
aS'Ral, Caller of Storms'
p67
aS'Underrealm Lich'
p68
aS'Aurelia, Exemplar of Justice'
p69
aS'Trostani Discordant'
p70
aS'Lazav, the Multifarious'
p71
aS'Divine Visitation'
p72
aS'Nullhide Ferox'
p73
aS'Ral, Izzet Viceroy'
p74
atp75
Rp76
sS'Battle for Zendikar Promos'
p77
g1
((lp78
S'Oblivion Sower'
p79
aS'Akoum Firebird'
p80
aS'Gideon, Ally of Zendikar'
p81
aS'Dragonmaster Outcast'
p82
aS'Undergrowth Champion'
p83
aS'Ob Nixilis Reignited'
p84
aS'Ulamog, the Ceaseless Hunger'
p85
aS'Void Winnower'
p86
aS'Sire of Stagnation'
p87
aS'Greenwarden of Murasa'
p88
aS'Kiora, Master of the Depths'
p89
aS'Omnath, Locus of Rage'
p90
aS'Quarantine Field'
p91
aS'Drana, Liberator of Malakir'
p92
atp93
Rp94
sS'Scars of Mirrodin Promos'
p95
g1
((lp96
S'Wurmcoil Engine'
p97
atp98
Rp99
sS'Battle for Zendikar'
p100
g1
((lp101
g88
ag81
atp102
Rp103
sS'Commander Anthology Volume II'
p104
g1
((lp105
S'The Mimeoplasm'
p106
aS'Anya, Merciless Angel'
p107
aS'Sun Titan'
p108
aS'Wrexial, the Risen Deep'
p109
aS'Bogardan Hellkite'
p110
aS'Gisela, Blade of Goldnight'
p111
aS'Kalemne, Disciple of Iroas'
p112
aS'Master Biomancer'
p113
aS'Ishai, Ojutai Dragonspeaker'
p114
aS'Ikra Shidiqi, the Usurper'
p115
aS'Angel of Serenity'
p116
aS'Feldon of the Third Path'
p117
aS"Atraxa, Praetors' Voice"
p118
aS'Kalonian Hydra'
p119
aS'Ghave, Guru of Spores'
p120
aS'Damia, Sage of Stone'
p121
aS'Inferno Titan'
p122
aS'Daretti, Scrap Savant'
p123
ag97
atp124
Rp125
sS'Battlebond Promos'
p126
g1
((lp127
S'Will Kenrith'
p128
aS'Rowan Kenrith'
p129
atp130
Rp131
sS'Rivals of Ixalan Promos'
p132
g1
((lp133
S'The Immortal Sun'
p134
aS'Polyraptor'
p135
aS"Azor's Gateway // Sanctum of the Sun"
p136
aS'Azor, the Lawbringer'
p137
aS'Trapjaw Tyrant'
p138
aS'Kumena, Tyrant of Orazca'
p139
aS'Timestream Navigator'
p140
aS'Elenda, the Dusk Rose'
p141
aS'Zacama, Primal Calamity'
p142
aS'Huatli, Radiant Champion'
p143
aS'Twilight Prophet'
p144
aS'Angrath, the Flame-Chained'
p145
aS'Rekindling Phoenix'
p146
atp147
Rp148
sS'Duels of the Planeswalkers Promos 2009'
p149
g1
((lp150
S'Garruk Wildspeaker'
p151
atp152
Rp153
sS'Magic Origins'
p154
g1
((lp155
S"Erebos's Titan"
p156
atp157
Rp158
sS'Duel Decks: Phyrexia vs. the Coalition'
p159
g1
((lp160
S'Phyrexian Negator'
p161
aS"Urza's Rage"
p162
atp163
Rp164
sS'Premium Deck Series: Slivers'
p165
g1
((lp166
S'Sliver Overlord'
p167
atp168
Rp169
sS'Battlebond'
p170
g1
((lp171
S'Mycosynth Lattice'
p172
aS'Doubling Season'
p173
aS'Stunning Reversal'
p174
aS'Arcane Artisan'
p175
aS'Nirkana Revenant'
p176
aS'Arena Rector'
p177
aS'Najeela, the Blade-Blossom'
p178
aS'True-Name Nemesis'
p179
aS'Archfiend of Despair'
p180
aS'Bramble Sovereign'
p181
aS'Brightling'
p182
ag128
aS'Land Tax'
p183
ag129
aS'Grothama, All-Devouring'
p184
atp185
Rp186
sS'You Make the Cube'
p187
g1
((lp188
S'Daretti, Ingenious Iconoclast'
p189
aS'Vial Smasher the Fierce'
p190
aS'Queen Marchesa'
p191
ag114
aS'Breya, Etherium Shaper'
p192
aS'Warren Instigator'
p193
aS'Yidris, Maelstrom Wielder'
p194
aS'Kaya, Ghost Assassin'
p195
aS'Saskia the Unyielding'
p196
aS'Nazahn, Revered Bladesmith'
p197
aS'Lovisa Coldeyes'
p198
aS'Edgar Markov'
p199
aS'O-Kagachi, Vengeful Kami'
p200
ag20
aS'Kynaios and Tiro of Meletis'
p201
aS'Bruse Tarl, Boorish Herder'
p202
aS'Mirri, Weatherlight Duelist'
p203
aS'Subterranean Tremors'
p204
aS'Sanctum Prelate'
p205
aS'Expropriate'
p206
aS'Sidar Kondo of Jamuraa'
p207
aS'Jhoira of the Ghitu'
p208
aS'Ludevic, Necro-Alchemist'
p209
ag118
aS'Selvala, Heart of the Wilds'
p210
ag115
aS'Silas Renn, Seeker Adept'
p211
aS'Ravos, Soultender'
p212
aS'Licia, Sanguine Tribune'
p213
aS'Inalla, Archmage Ritualist'
p214
aS'The Ur-Dragon'
p215
aS'Arahbo, Roar of the World'
p216
aS'Kydele, Chosen of Kruphix'
p217
aS'Master of Waves'
p218
aS'Kess, Dissident Mage'
p219
aS'Mathas, Fiend Seeker'
p220
aS'Ramos, Dragon Engine'
p221
aS'Tana, the Bloodsower'
p222
atp223
Rp224
sS'Khans of Tarkir Promos'
p225
g1
((lp226
S'Anafenza, the Foremost'
p227
aS'Zurgo Helmsmasher'
p228
aS'Surrak Dragonclaw'
p229
aS'Sidisi, Brood Tyrant'
p230
aS'Narset, Enlightened Master'
p231
atp232
Rp233
sS'Aether Revolt'
p234
g1
((lp235
S'Heart of Kiran'
p236
aS'Exquisite Archangel'
p237
aS"Gonti's Aether Heart"
p238
aS'Herald of Anguish'
p239
atp240
Rp241
sS"Commander's Arsenal"
p242
g1
((lp243
g106
aS'Kaalia of the Vast'
p244
aS'Vela the Night-Clad'
p245
aS'Maelstrom Wanderer'
p246
atp247
Rp248
sS'Amonkhet Promos'
p249
g1
((lp250
S'As Foretold'
p251
aS'Vizier of the Menagerie'
p252
aS'Nissa, Steward of Elements'
p253
aS'Hazoret the Fervent'
p254
aS'Angel of Sanctions'
p255
aS"Liliana, Death's Majesty"
p256
aS'Bontu the Glorified'
p257
aS'Rhonas the Indomitable'
p258
aS'Combat Celebrant'
p259
aS'Kefnet the Mindful'
p260
aS'Cruel Reality'
p261
aS'Gideon of the Trials'
p262
aS'Oketra the True'
p263
aS'Glorious End'
p264
aS'Samut, Voice of Dissent'
p265
atp266
Rp267
sS'Duel Decks: Elspeth vs. Tezzeret'
p268
g1
((lp269
S'Elspeth, Knight-Errant'
p270
aS'Tezzeret the Seeker'
p271
atp272
Rp273
sS'Signature Spellbook: Jace'
p274
g1
((lp275
S'Jace Beleren'
p276
atp277
Rp278
sS"Dragon's Maze Promos"
p279
g1
((lp280
S"Maze's End"
p281
atp282
Rp283
sS'From the Vault: Realms'
p284
g1
((lp285
S'Murmuring Bosk'
p286
aS'High Market'
p287
aS'Boseiju, Who Shelters All'
p288
aS'Glacial Chasm'
p289
aS'Cephalid Coliseum'
p290
aS'Windbrisk Heights'
p291
aS'Dryad Arbor'
p292
aS'Vesuva'
p293
aS'Maze of Ith'
p294
aS'Shivan Gorge'
p295
aS'Urborg, Tomb of Yawgmoth'
p296
aS'Forbidden Orchard'
p297
aS'Desert'
p298
aS'Ancient Tomb'
p299
aS'Grove of the Burnwillows'
p300
atp301
Rp302
sS'Magic 2013'
p303
g1
((lp304
S'Nicol Bolas, Planeswalker'
p305
aS"Akroma's Memorial"
p306
aS'Garruk, Primal Hunter'
p307
aS'Sublime Archangel'
p308
aS'Jace, Memory Adept'
p309
aS'Serra Avatar'
p310
aS'Worldfire'
p311
aS'Vampire Nocturnus'
p312
aS'Chandra, the Firebrand'
p313
aS'Primordial Hydra'
p314
aS'Omniscience'
p315
aS'Ajani, Caller of the Pride'
p316
aS'Elderscale Wurm'
p317
aS'Liliana of the Dark Realms'
p318
aS'Thundermaw Hellkite'
p319
atp320
Rp321
sS'From the Vault: Transform'
p322
g1
((lp323
S'Archangel Avacyn // Avacyn, the Purifier'
p324
aS'Garruk Relentless // Garruk, the Veil-Cursed'
p325
aS'Bloodline Keeper // Lord of Lineage'
p326
aS'Huntmaster of the Fells // Ravager of the Fells'
p327
aS'Arlinn Kord // Arlinn, Embraced by the Moon'
p328
aS'Gisela, the Broken Blade'
p329
aS'Brisela, Voice of Nightmares'
p330
aS'Elbrus, the Binding Blade // Withengar Unbound'
p331
aS'Liliana, Heretical Healer // Liliana, Defiant Necromancer'
p332
aS"Jace, Vryn's Prodigy // Jace, Telepath Unbound"
p333
aS'Kytheon, Hero of Akros // Gideon, Battle-Forged'
p334
aS'Nissa, Vastwood Seer '
p335
aS'Bruna, the Fading Light'
p336
aS'Delver of Secrets // Insectile Aberration'
p337
aS"Arguel's Blood Fast // Temple of Aclazotz"
p338
aS'Chandra, Fire of Kaladesh // Chandra, Roaring Flame'
p339
aS'Nissa, Vastwood Seer // Nissa, Sage Animist'
p340
atp341
Rp342
sS'Born of the Gods'
p343
g1
((lp344
S'Ephara, God of the Polis'
p345
aS'Flame-Wreathed Phoenix'
p346
atp347
Rp348
sS'Dark Ascension'
p349
g1
((lp350
S"Archangel's Light"
p351
aS'Drogskol Reaver'
p352
ag327
aS'Moonveil Dragon'
p353
ag331
aS'Vorapede'
p354
aS'Sorin, Lord of Innistrad'
p355
aS'Havengul Lich'
p356
aS'Beguiler of Wills'
p357
aS'Falkenrath Aristocrat'
p358
aS'Helvault'
p359
ag12
atp360
Rp361
sS'Duel Decks: Izzet vs. Golgari'
p362
g1
((lp363
S'Jarad, Golgari Lich Lord'
p364
aS'Niv-Mizzet, the Firemind'
p365
atp366
Rp367
sS'Amonkhet Invocations'
p368
g1
((lp369
S'Through the Breach'
p370
aS'Force of Will'
p371
aS'Austere Command'
p372
aS'Chain Lightning'
p373
aS'Diabolic Intent'
p374
aS'Slaughter Pact'
p375
aS'Avatar of Woe'
p376
aS'Consecrated Sphinx'
p377
ag315
aS'Sunder'
p378
aS'Daze'
p379
aS'Shatterstorm'
p380
aS'Divert'
p381
aS'Boil'
p382
aS'Loyal Retainers'
p383
aS'Threads of Disloyalty'
p384
aS'Vindicate'
p385
aS'Mind Twist'
p386
ag258
aS'The Scarab God'
p387
aS'Aven Mindcensor'
p388
ag260
aS'Desolation Angel'
p389
aS'Aggravated Assault'
p390
aS'Counterbalance'
p391
aS'Maelstrom Pulse'
p392
ag263
aS'Stifle'
p393
aS'Spell Pierce'
p394
aS'Wrath of God'
p395
aS'Thoughtseize'
p396
aS'Opposition'
p397
aS'The Scorpion God'
p398
ag254
ag7
aS'Choke'
p399
aS'The Locust God'
p400
aS'Entomb'
p401
aS'Doomsday'
p402
aS'Capsize'
p403
ag257
aS'Counterspell'
p404
aS'Forbid'
p405
aS'Dark Ritual'
p406
aS'No Mercy'
p407
aS'Cryptic Command'
p408
aS'Blood Moon'
p409
aS'Damnation'
p410
aS'Attrition'
p411
aS'Armageddon'
p412
aS'Containment Priest'
p413
aS'Pact of Negation'
p414
aS'Worship'
p415
aS'Diabolic Edict'
p416
atp417
Rp418
sS'Magic 2010 Promos'
p419
g1
((lp420
g312
atp421
Rp422
sS'Zendikar Expeditions'
p423
g1
((lp424
S'Godless Shrine'
p425
aS'Fire-Lit Thicket'
p426
aS'Horizon Canopy'
p427
aS'Flooded Strand'
p428
aS'Hallowed Fountain'
p429
aS'Fetid Heath'
p430
aS'Graven Cairns'
p431
ag297
aS'Eye of Ugin'
p432
aS'Dust Bowl'
p433
aS'Flooded Grove'
p434
atp435
Rp436
sS'Theros'
p437
g1
((lp438
S"Elspeth, Sun's Champion"
p439
aS'Erebos, God of the Dead'
p440
aS'Heliod, God of the Sun'
p441
atp442
Rp443
sS'Mirrodin Besieged Promos'
p444
g1
((lp445
S'Glissa, the Traitor'
p446
aS'Hero of Bladehold'
p447
atp448
Rp449
sS'Judge Gift Cards 2014'
p450
g1
((lp451
S'Riku of Two Reflections'
p452
atp453
Rp454
sS'Judge Gift Cards 2017'
p455
g1
((lp456
S'Avacyn, Angel of Hope'
p457
aS'Doran, the Siege Tower'
p458
atp459
Rp460
sS'Duel Decks: Sorin vs. Tibalt'
p461
g1
((lp462
S'Tibalt, the Fiend-Blooded'
p463
ag355
atp464
Rp465
sS'Duels of the Planeswalkers Promos 2010'
p466
g1
((lp467
S'Liliana Vess'
p468
aS'Nissa Revane'
p469
atp470
Rp471
sS'Conspiracy: Take the Crown'
p472
g1
((lp473
g205
ag376
aS'Platinum Angel'
p474
ag206
ag189
aS'Hymn of the Wilds'
p475
ag191
ag210
aS'Show and Tell'
p476
ag20
ag195
ag204
aS'Berserk'
p477
aS"Sovereign's Realm"
p478
atp479
Rp480
sS'Duel Decks Anthology: Garruk vs. Liliana'
p481
g1
((lp482
g151
ag468
atp483
Rp484
sS'Duel Decks: Zendikar vs. Eldrazi'
p485
g1
((lp486
g79
aS'Avenger of Zendikar'
p487
atp488
Rp489
sS'From the Vault: Annihilation'
p490
g1
((lp491
S'Child of Alara'
p492
ag395
aS'Terminus'
p493
aS'Upheaval'
p494
aS'Burning of Xinye'
p495
aS'Martial Coup'
p496
aS'Smokestack'
p497
aS'Rolling Earthquake'
p498
aS'Living Death'
p499
aS'Firespout'
p500
aS'Cataclysm'
p501
aS"Virtue's Ruin"
p502
ag412
aS'Fracturing Gust'
p503
aS'Decree of Annihilation'
p504
atp505
Rp506
sS'Duel Decks: Divine vs. Demonic'
p507
g1
((lp508
S'Lord of the Pit'
p509
aS'Akroma, Angel of Wrath'
p510
atp511
Rp512
sS'Commander 2018 Oversized'
p513
g1
((lp514
S'Lord Windgrace'
p515
aS'Estrid, the Masked'
p516
aS'Saheeli, the Gifted'
p517
aS'Aminatou, the Fateshifter'
p518
atp519
Rp520
sS'From the Vault: Relics'
p521
g1
((lp522
S'Isochron Scepter'
p523
aS'Sword of Body and Mind'
p524
aS'Sundering Titan'
p525
aS'Ivory Tower'
p526
aS'Memory Jar'
p527
aS'Sol Ring'
p528
aS'Masticore'
p529
aS"Jester's Cap"
p530
aS'Mox Diamond'
p531
aS'Zuran Orb'
p532
aS'Black Vise'
p533
aS'Mirari'
p534
aS'Aether Vial'
p535
aS"Nevinyrral's Disk"
p536
aS'Karn, Silver Golem'
p537
atp538
Rp539
sS'From the Vault: Exiled'
p540
g1
((lp541
S'Skullclamp'
p542
aS'Mystical Tutor'
p543
aS'Necropotence'
p544
aS'Serendib Efreet'
p545
aS'Balance'
p546
ag477
aS'Channel'
p547
aS'Trinisphere'
p548
aS'Strip Mine'
p549
aS"Sensei's Divining Top"
p550
aS'Tinker'
p551
aS'Kird Ape'
p552
aS'Goblin Lackey'
p553
aS'Gifts Ungiven'
p554
aS'Lotus Petal'
p555
atp556
Rp557
sS'Explorers of Ixalan'
p558
g1
((lp559
S'Necropolis Regent'
p560
aS'Time Warp'
p561
atp562
Rp563
sS'Modern Masters 2017'
p564
g1
((lp565
S'Griselbrand'
p566
aS'Entreat the Angels'
p567
atp568
Rp569
sS'Modern Masters 2015'
p570
g1
((lp571
g16
aS'Elesh Norn, Grand Cenobite'
p572
atp573
Rp574
sS'Fate Reforged Promos'
p575
g1
((lp576
S'Torrent Elemental'
p577
aS'Warden of the First Tree'
p578
aS'Brutal Hordechief'
p579
aS'Shaman of the Great Hunt'
p580
aS'Soulfire Grand Master'
p581
atp582
Rp583
sS'Duel Decks: Jace vs. Vraska'
p584
g1
((lp585
S'Jace, Architect of Thought'
p586
aS'Vraska the Unseen'
p587
atp588
Rp589
sS'Magic Origins Promos'
p590
g1
((lp591
g334
ag332
ag333
aS'Nissa, Vastwood Seer '
p592
ag339
ag340
atp593
Rp594
sS'Oath of the Gatewatch'
p595
g1
((lp596
g37
atp597
Rp598
sS'Dragons of Tarkir Promos'
p599
g1
((lp600
S'Dragonlord Kolaghan'
p601
aS'Dragonlord Silumgar'
p602
aS'Dragonlord Dromoka'
p603
aS'Dragonlord Ojutai'
p604
atp605
Rp606
sS'Duel Decks: Mirrodin Pure vs. New Phyrexia'
p607
g1
((lp608
S'Phyrexian Plaguelord'
p609
ag474
atp610
Rp611
sS'Duels of the Planeswalkers Promos 2012'
p612
g1
((lp613
g312
ag310
ag314
atp614
Rp615
sS'Vintage Championship'
p616
g1
((lp617
S'Mox Jet'
p618
aS'Mox Emerald'
p619
aS'Timetwister'
p620
aS'Mox Ruby'
p621
aS'Mox Sapphire'
p622
aS'Black Lotus'
p623
aS'Ancestral Recall'
p624
aS'Time Walk'
p625
aS'Mox Pearl'
p626
atp627
Rp628
sS'Ultimate Box Topper'
p629
g1
((lp630
g370
aS'Stirring Wildwood'
p631
aS'Reanimate'
p632
ag9
aS'Kitchen Finks'
p633
ag10
aS'Tasigur, the Golden Fang'
p634
ag12
aS'Raging Ravine'
p635
ag13
ag15
ag19
aS'Life from the Loam'
p636
ag17
ag20
ag296
ag392
aS'Fulminator Mage'
p637
ag299
aS'Demonic Tutor'
p638
ag6
aS'Noble Hierarch'
p639
aS'Creeping Tar Pit'
p640
aS"Goryo's Vengeance"
p641
ag7
ag8
aS'Gaddock Teeg'
p642
aS'Lavaclaw Reaches'
p643
ag11
aS'Eternal Witness'
p644
aS'Celestial Colonnade'
p645
ag14
ag49
ag18
ag16
ag21
ag22
ag23
ag24
ag25
atp646
Rp647
sS'Worldwake'
p648
g1
((lp649
g432
atp650
Rp651
sS'Magic 2012 Promos'
p652
g1
((lp653
S'Bloodlord of Vaasgoth'
p654
atp655
Rp656
sS'Khans of Tarkir'
p657
g1
((lp658
S'Hooded Hydra'
p659
aS'Empty the Pits'
p660
atp661
Rp662
sS'Aether Revolt Promos'
p663
g1
((lp664
S'Mechanized Production'
p665
ag239
aS'Planar Bridge'
p666
aS'Indomitable Creativity'
p667
aS'Aetherwind Basker'
p668
ag238
ag237
aS'Lightning Runner'
p669
ag236
aS'Ajani Unyielding'
p670
aS'Paradox Engine'
p671
aS'Tezzeret the Schemer'
p672
atp673
Rp674
sS'Commander 2013 Oversized'
p675
g1
((lp676
S'Mayael the Anima'
p677
aS'Shattergang Brothers'
p678
aS'Sharuum the Hegemon'
p679
aS'Roon of the Hidden Realm'
p680
aS'Gahiji, Honored One'
p681
aS'Marath, Will of the Wild'
p682
aS'Derevi, Empyrial Tactician'
p683
aS'Nekusar, the Mindrazer'
p684
aS'Prossh, Skyraider of Kher'
p685
aS'Oloro, Ageless Ascetic'
p686
aS'Thraximundar'
p687
aS'Sydri, Galvanic Genius'
p688
aS"Jeleva, Nephalia's Scourge"
p689
atp690
Rp691
sS'New Phyrexia'
p692
g1
((lp693
S'Etched Monstrosity'
p694
ag572
atp695
Rp696
sS'Magic 2011'
p697
g1
((lp698
S"Demon of Death's Gate"
p699
ag108
ag468
ag151
aS'Ajani Goldmane'
p700
aS"Gaea's Revenge"
p701
ag276
ag474
aS'Grave Titan'
p702
aS'Baneslayer Angel'
p703
ag122
aS'Time Reversal'
p704
aS'Frost Titan'
p705
aS'Chandra Nalaar'
p706
aS'Primeval Titan'
p707
atp708
Rp709
sS'Commander Anthology'
p710
g1
((lp711
S'Tariel, Reckoner of Souls'
p712
ag364
ag680
aS'Titania, Protector of Argoth'
p713
aS"Freyalise, Llanowar's Fury"
p714
ag244
aS'Mazirek, Kraul Death Priest'
p715
aS"Praetor's Counsel"
p716
aS'Meren of Clan Nel Toth'
p717
aS'Malfegor'
p718
aS'Eldrazi Monument'
p719
aS'Champion of Stray Souls'
p720
ag683
aS'Rampaging Baloths'
p721
aS'Comet Storm'
p722
atp723
Rp724
sS'Eldritch Moon Promos'
p725
g1
((lp726
S'Mirrorwing Dragon'
p727
ag329
aS'Ulrich of the Krallenhorde // Ulrich, Uncontested Alpha'
p728
ag330
aS'Tamiyo, Field Researcher'
p729
aS'Deploy the Gatewatch'
p730
aS"Nahiri's Wrath"
p731
aS'Liliana, the Last Hope'
p732
aS'Ulrich of the Krallenhorde '
p733
aS"Mind's Dilation"
p734
aS'Tree of Perdition'
p735
aS'Ishkanah, Grafwidow'
p736
aS'Grim Flayer'
p737
aS'Emrakul, the Promised End'
p738
aS'Decimator of the Provinces'
p739
aS'Gisa and Geralf'
p740
atp741
Rp742
sS'Arena New Player Experience'
p743
g1
((lp744
S'Overflowing Insight'
p745
atp746
Rp747
sS'Duel Decks: Nissa vs. Ob Nixilis'
p748
g1
((lp749
g31
ag84
atp750
Rp751
sS'Hour of Devastation Promos'
p752
g1
((lp753
S'Razaketh, the Foulblooded'
p754
aS'Crested Sunmare'
p755
aS'Majestic Myriarch'
p756
ag398
aS'Overwhelming Splendor'
p757
ag387
ag400
aS'Neheb, the Eternal'
p758
aS'Samut, the Tested'
p759
aS'Unesh, Criosphinx Sovereign'
p760
aS'Nicol Bolas, God-Pharaoh'
p761
aS'Uncage the Menagerie'
p762
atp763
Rp764
sS'Masters 25'
p765
g1
((lp766
g46
aS'Chalice of the Void'
p767
aS'Phyrexian Obliterator'
p768
aS'Animar, Soul of Elements'
p769
ag111
aS'Vendilion Clique'
p770
ag402
aS'Tree of Redemption'
p771
aS'Akroma, Angel of Fury'
p772
aS'Imperial Recruiter'
p773
aS'Jace, the Mind Sculptor'
p774
aS'Master of the Wild Hunt'
p775
ag685
ag412
ag510
atp776
Rp777
sS'Duel Decks Anthology: Jace vs. Chandra'
p778
g1
((lp779
g706
ag276
atp780
Rp781
sS'Magic 2014'
p782
g1
((lp783
S'Devout Invocation'
p784
aS'Scourge of Valkas'
p785
ag309
aS'Primeval Bounty'
p786
aS'Darksteel Forge'
p787
aS'Shadowborn Demon'
p788
aS'Ring of Three Wishes'
p789
ag119
aS'Garruk, Caller of Beasts'
p790
aS'Chandra, Pyromaster'
p791
ag316
ag318
aS'Rise of the Dark Realms'
p792
aS'Archangel of Thune'
p793
aS'Windreader Sphinx'
p794
atp795
Rp796
sS'Magic 2015'
p797
g1
((lp798
S'The Chain Veil'
p799
aS'Soul of Innistrad'
p800
aS'Perilous Vault'
p801
aS'Ajani Steadfast'
p802
aS'Sliver Hivelord'
p803
aS'Soul of New Phyrexia'
p804
ag468
aS'Jace, the Living Guildpact'
p805
aS'Soul of Ravnica'
p806
aS'Nissa, Worldwaker'
p807
aS'Garruk, Apex Predator'
p808
aS'Soul of Theros'
p809
ag791
aS'Soul of Shandalar'
p810
aS'Soul of Zendikar'
p811
atp812
Rp813
sS'Magic 2010'
p814
g1
((lp815
S'Darksteel Colossus'
p816
aS'Protean Hydra'
p817
aS'Xathrid Demon'
p818
ag468
ag151
ag700
ag110
aS'Sphinx Ambassador'
p819
ag276
ag312
ag474
ag703
ag775
ag706
ag561
atp820
Rp821
sS'Eternal Masters'
p822
g1
((lp823
g371
atp824
Rp825
sS'Magic 2012'
p826
g1
((lp827
S'Gideon Jura'
p828
aS'Angelic Destiny'
p829
ag108
ag307
ag654
aS'Sorin Markov'
p830
ag309
ag704
ag702
ag313
ag314
ag122
aS'Furyborn Hellkite'
p831
ag705
ag707
atp832
Rp833
sS'Fate Reforged'
p834
g1
((lp835
S'Ghastly Conscription'
p836
atp837
Rp838
sS'Duel Decks: Garruk vs. Liliana'
p839
g1
((lp840
g151
ag468
atp841
Rp842
sS'GRN Guild Kit'
p843
g1
((lp844
g364
aS'Lazav, Dimir Mastermind'
p845
aS'Aurelia, the Warleader'
p846
aS"Trostani, Selesnya's Voice"
p847
aS'Deadbridge Chant'
p848
aS'Armada Wurm'
p849
atp850
Rp851
sS'Vintage Masters'
p852
g1
((lp853
S'Marchesa, the Black Rose'
p854
ag494
aS'Oath of Druids'
p855
aS"Mishra's Workshop"
p856
aS'Scourge of the Throne'
p857
ag527
ag622
aS'Library of Alexandria'
p858
aS'Eureka'
p859
ag547
ag620
aS'City in a Bottle'
p860
aS"Yawgmoth's Will"
p861
aS'Tolarian Academy'
p862
ag624
ag638
aS'Mana Drain'
p863
ag542
aS'Time Vault'
p864
aS'Dack Fayden'
p865
aS'Coercive Portal'
p866
aS'Fastbond'
p867
aS'Wheel of Fortune'
p868
ag528
aS"Yawgmoth's Bargain"
p869
ag546
ag626
aS"Lion's Eye Diamond"
p870
ag619
aS'Mana Crypt'
p871
aS'Muzzio, Visionary Architect'
p872
aS'Bazaar of Baghdad'
p873
aS'Morphling'
p874
ag621
ag774
ag623
ag618
ag412
ag625
atp875
Rp876
sS'Duel Decks: Speed vs. Cunning'
p877
g1
((lp878
S'Arcanis the Omnipotent'
p879
ag228
atp880
Rp881
sS'Grand Prix Promos'
p882
g1
((lp883
g566
aS'Batterskull'
p884
aS'Progenitus'
p885
ag707
atp886
Rp887
sS'Tempest Remastered'
p888
g1
((lp889
S'Dream Halls'
p890
ag855
ag48
aS'Cursed Scroll'
p891
aS'Starke of Rath'
p892
aS"Volrath's Stronghold"
p893
aS'Recurring Nightmare'
p894
aS'Survival of the Fittest'
p895
ag499
ag531
aS'Sliver Queen'
p896
ag501
aS'Humility'
p897
aS'Shard Phoenix'
p898
ag561
atp899
Rp900
sS'From the Vault: Lore'
p901
g1
((lp902
S"Umezawa's Jitte"
p903
aS'Near-Death Experience'
p904
aS'Obliterate'
p905
aS'Tolaria West'
p906
ag359
ag446
aS'Beseech the Queen'
p907
aS'Phyrexian Processor'
p908
aS'Memnarch'
p909
aS"Mind's Desire"
p910
aS'Cabal Ritual'
p911
aS'Unmask'
p912
aS'Conflux'
p913
ag17
aS'Momir Vig, Simic Visionary'
p914
atp915
Rp916
sS'Commander 2011 Oversized'
p917
g1
((lp918
g712
ag106
aS'Ruhan of the Fomori'
p919
ag120
aS'Karador, Ghost Chieftain'
p920
ag121
ag244
ag452
aS'Zedruu the Greathearted'
p921
ag769
atp922
Rp923
sS'From the Vault: Legends'
p924
g1
((lp925
S'Captain Sisay'
p926
ag885
aS'Mikaeus, the Lunarch'
p927
aS'Sun Quan, Lord of Wu'
p928
ag9
aS'Omnath, Locus of Mana'
p929
aS'Rafiq of the Many'
p930
aS'Kiki-Jiki, Mirror Breaker'
p931
aS'Cao Cao, Lord of Wei'
p932
aS'Oona, Queen of the Fae'
p933
ag679
aS'Kresh the Bloodbraided'
p934
aS'Visara the Dreadful'
p935
aS'Teferi, Mage of Zhalfir'
p936
ag458
atp937
Rp938
sS'Global Series Jiang Yanggu & Mu Yanling'
p939
g1
((lp940
S'Mu Yanling'
p941
aS'Jiang Yanggu'
p942
atp943
Rp944
sS'Modern Event Deck 2014'
p945
g1
((lp946
g270
aS'Sword of Feast and Famine'
p947
atp948
Rp949
sS'Innistrad'
p950
g1
((lp951
g325
ag927
aS'Grimoire of the Dead'
p952
aS'Olivia Voldaren'
p953
aS'Geist of Saint Traft'
p954
aS'Army of the Damned'
p955
ag771
aS'Skaab Ruinator'
p956
aS'Reaper from the Abyss'
p957
aS'Grimgrin, Corpse-Born'
p958
aS'Past in Flames'
p959
aS'Essence of the Wild'
p960
aS'Angelic Overseer'
p961
aS'Mirror-Mad Phantasm'
p962
ag18
ag23
atp963
Rp964
sS'Dominaria Promos'
p965
g1
((lp966
S'Muldrotha, the Gravetide'
p967
aS'Phyrexian Scriptures'
p968
aS'Verix Bladewing'
p969
aS'Demonlord Belzenlok'
p970
aS'Weatherlight'
p971
aS'Naru Meha, Master Wizard'
p972
aS'Jaya Ballard'
p973
aS'Darigaaz Reincarnated'
p974
aS"Multani, Yavimaya's Avatar"
p975
aS'History of Benalia'
p976
aS'Mox Amber'
p977
aS'Teferi, Hero of Dominaria'
p978
aS'Jhoira, Weatherlight Captain'
p979
aS'Lyra Dawnbringer'
p980
aS'Karn, Scion of Urza'
p981
atp982
Rp983
sS'Duel Decks: Elspeth vs. Kiora'
p984
g1
((lp985
g439
aS'Kiora, the Crashing Wave'
p986
atp987
Rp988
sS'Gatecrash'
p989
g1
((lp990
S'Giant Adephage'
p991
aS'Hellkite Tyrant'
p992
aS'Duskmantle Seer'
p993
aS'Gideon, Champion of Justice'
p994
aS'Enter the Infinite'
p995
atp996
Rp997
sS'Duel Decks Anthology: Divine vs. Demonic'
p998
g1
((lp999
g509
ag510
atp1000
Rp1001
sS'Rise of the Eldrazi'
p1002
g1
((lp1003
g16
aS'Hellcarver Demon'
p1004
ag828
atp1005
Rp1006
sS'Duel Decks: Knights vs. Dragons'
p1007
g1
((lp1008
S'Knight of the Reliquary'
p1009
ag110
atp1010
Rp1011
sS'Shadows over Innistrad'
p1012
g1
((lp1013
S'Goldnight Castigator'
p1014
aS"Geralf's Masterpiece"
p1015
atp1016
Rp1017
sS'Duel Decks: Ajani vs. Nicol Bolas'
p1018
g1
((lp1019
g305
aS'Ajani Vengeant'
p1020
atp1021
Rp1022
sS'Shards of Alara'
p1023
g1
((lp1024
S'Godsire'
p1025
ag270
aS'Empyrial Archangel'
p1026
aS'Hellkite Overlord'
p1027
atp1028
Rp1029
sS'Zendikar'
p1030
g1
((lp1031
S'Obsidian Fireheart'
p1032
aS'Felidar Sovereign'
p1033
ag830
aS'Mindbreak Trap'
p1034
ag193
aS'Kalitas, Bloodchief of Ghet'
p1035
aS'Lotus Cobra'
p1036
aS'Iona, Shield of Emeria'
p1037
ag719
aS'Chandra Ablaze'
p1038
aS'Eternity Vessel'
p1039
aS'Ob Nixilis, the Fallen'
p1040
ag469
ag721
aS'Lorthos, the Tidemaker'
p1041
atp1042
Rp1043
sS'Journey into Nyx'
p1044
g1
((lp1045
S'Ajani, Mentor of Heroes'
p1046
aS'Worst Fears'
p1047
aS'Sage of Hours'
p1048
aS'Keranos, God of Storms'
p1049
aS'Iroas, God of Victory'
p1050
aS'Prophetic Flamespeaker'
p1051
aS'Pharika, God of Affliction'
p1052
aS'Kruphix, God of Horizons'
p1053
aS'Godsend'
p1054
aS'Athreos, God of Passage'
p1055
atp1056
Rp1057
sS'Commander 2017 Oversized'
p1058
g1
((lp1059
g214
ag199
ag216
ag215
atp1060
Rp1061
sS'Duel Decks: Venser vs. Koth'
p1062
g1
((lp1063
S'Koth of the Hammer'
p1064
aS'Venser, the Sojourner'
p1065
atp1066
Rp1067
sS'Duel Decks: Elves vs. Inventors'
p1068
g1
((lp1069
S'Ezuri, Renegade Leader'
p1070
aS'Goblin Welder'
p1071
atp1072
Rp1073
sS"Commander's Arsenal Oversized"
p1074
g1
((lp1075
S'Karrthus, Tyrant of Jund'
p1076
ag677
ag958
ag446
atp1077
Rp1078
sS'Duel Decks: Heroes vs. Monsters'
p1079
g1
((lp1080
g108
aS'Polukranos, World Eater'
p1081
atp1082
Rp1083
sS'Commander 2016 Oversized'
p1084
g1
((lp1085
g192
ag194
ag201
ag196
ag118
atp1086
Rp1087
sS'Scars of Mirrodin'
p1088
g1
((lp1089
S'Elspeth Tirel'
p1090
aS'Geth, Lord of the Vault'
p1091
atp1092
Rp1093
sS'Open the Helvault'
p1094
g1
((lp1095
g566
ag111
ag457
ag22
aS'Bruna, Light of Alabaster'
p1096
atp1097
Rp1098
sS'Kaladesh Promos'
p1099
g1
((lp1100
S'Dovin Baan'
p1101
aS'Metallurgic Summonings'
p1102
aS'Saheeli Rai'
p1103
aS'Aetherworks Marvel'
p1104
aS'Angel of Invention'
p1105
aS'Combustible Gearhulk'
p1106
aS'Skysovereign, Consul Flagship'
p1107
aS'Demon of Dark Schemes'
p1108
aS'Noxious Gearhulk'
p1109
aS'Nissa, Vital Force'
p1110
aS'Verdurous Gearhulk'
p1111
aS'Chandra, Torch of Defiance'
p1112
aS'Cataclysmic Gearhulk'
p1113
aS'Rashmi, Eternities Crafter'
p1114
aS'Torrential Gearhulk'
p1115
atp1116
Rp1117
sS"Dragon's Maze"
p1118
g1
((lp1119
S'Blood Baron of Vizkopa'
p1120
aS'Reap Intellect'
p1121
aS'Council of the Absolute'
p1122
aS'Savageborn Hydra'
p1123
aS"Legion's Initiative"
p1124
ag281
aS'Master of Cruelties'
p1125
aS'Voice of Resurgence'
p1126
aS'Progenitor Mimic'
p1127
aS'Ral Zarek'
p1128
ag848
atp1129
Rp1130
sS'Premium Deck Series: Graveborn'
p1131
g1
((lp1132
S'Sphinx of the Steel Wind'
p1133
atp1134
Rp1135
sS'Core Set 2019'
p1136
g1
((lp1137
S'Ajani, Adversary of Tyrants'
p1138
aS'Tezzeret, Artifice Master'
p1139
aS'Sarkhan, Fireblood'
p1140
aS'Crucible of Worlds'
p1141
aS'Ajani, Wise Counselor'
p1142
aS'Vaevictis Asmadi, the Dire'
p1143
aS'Bone Dragon'
p1144
aS'Nexus of Fate'
p1145
aS'Liliana, Untouched by Death'
p1146
aS'Chromium, the Mutable'
p1147
aS'Vivien of the Arkbow'
p1148
aS'Vivien Reid'
p1149
aS'Apex of Power'
p1150
aS'Resplendent Angel'
p1151
aS'Tezzeret, Cruel Machinist'
p1152
aS'Scapeshift'
p1153
aS'Nicol Bolas, the Ravager // Nicol Bolas, the Arisen'
p1154
ag315
aS'Sarkhan, Dragonsoul'
p1155
aS'Arcades, the Strategist'
p1156
aS'Liliana, the Necromancer'
p1157
aS'Palladia-Mors, the Ruiner'
p1158
atp1159
Rp1160
sS'Avacyn Restored'
p1161
g1
((lp1162
g566
ag111
ag567
atp1163
Rp1164
sS'Eldritch Moon'
p1165
g1
((lp1166
g737
ag738
ag740
ag330
ag329
atp1167
Rp1168
sS'Guilds of Ravnica Promos'
p1169
g1
((lp1170
g57
ag70
ag68
ag69
ag71
atp1171
Rp1172
sS'Mythic Edition'
p1173
g1
((lp1174
g305
ag732
ag189
ag978
ag63
aS'Tezzeret, Agent of Bolas'
p1175
ag270
ag74
atp1176
Rp1177
sS'From the Vault: Twenty'
p1178
g1
((lp1179
S'Cruel Ultimatum'
p1180
aS'Chameleon Colossus'
p1181
aS"Chainer's Edict"
p1182
aS'Venser, Shaper Savant'
p1183
aS'Swords to Plowshares'
p1184
aS'Kessig Wolf Run'
p1185
aS'Hymn to Tourach'
p1186
aS'Fact or Fiction'
p1187
aS'Tangle Wire'
p1188
aS"Green Sun's Zenith"
p1189
ag406
aS'Ink-Eyes, Servant of Oni'
p1190
aS'Char'
p1191
ag774
aS'Wall of Blossoms'
p1192
aS'Impulse'
p1193
aS'Thran Dynamo'
p1194
aS"Akroma's Vengeance"
p1195
aS'Gilded Lotus'
p1196
aS'Fyndhorn Elves'
p1197
atp1198
Rp1199
sS'Conflux'
p1200
g1
((lp1201
S'Ethersworn Adjudicator'
p1202
atp1203
Rp1204
sS'Duel Decks: Blessed vs. Cursed'
p1205
g1
((lp1206
S'Mindwrack Demon'
p1207
ag954
atp1208
Rp1209
sS'Shadows over Innistrad Promos'
p1210
g1
((lp1211
g1207
ag324
aS'Sorin, Grim Nemesis'
p1212
ag328
aS'The Gitrog Monster'
p1213
aS'Relentless Dead'
p1214
aS'Descend upon the Sinful'
p1215
ag1015
ag1014
aS'Startled Awake // Persistent Nightmare'
p1216
aS'Olivia, Mobilized for War'
p1217
aS'Behold the Beyond'
p1218
aS'Nahiri, the Harbinger'
p1219
aS'Ulvenwald Hydra'
p1220
aS"Wolf of Devil's Breach"
p1221
aS"Sigarda, Heron's Grace"
p1222
aS'Jace, Unraveler of Secrets'
p1223
aS'Seasons Past'
p1224
atp1225
Rp1226
sS'Return to Ravnica'
p1227
g1
((lp1228
S'Epic Experiment'
p1229
atp1230
Rp1231
sS"Ugin's Fate"
p1232
g1
((lp1233
S'Ugin, the Spirit Dragon'
p1234
atp1235
Rp1236
sS'Legendary Cube'
p1237
g1
((lp1238
S'Ob Nixilis of the Black Oath'
p1239
ag106
ag854
ag865
ag769
aS'Abyssal Persecutor'
p1240
ag714
ag123
ag921
ag244
ag246
aS'Nahiri, the Lithomancer'
p1241
ag120
aS'Reya Dawnbringer'
p1242
ag179
aS'Teferi, Temporal Archmage'
p1243
atp1244
Rp1245
sS'Ixalan Promos'
p1246
g1
((lp1247
g745
aS'Boneyard Parley'
p1248
aS"Gishath, Sun's Avatar"
p1249
aS'Vraska, Relic Seeker'
p1250
aS'Vona, Butcher of Magan'
p1251
aS'Admiral Beckett Brass'
p1252
aS'Carnage Tyrant'
p1253
aS'Dire Fleet Ravager'
p1254
aS'Rowdy Crew'
p1255
aS'Axis of Mortality'
p1256
aS'Star of Extinction'
p1257
aS'Tishana, Voice of Thunder'
p1258
aS'Jace, Cunning Castaway'
p1259
aS'Huatli, Warrior Poet'
p1260
aS"Wakening Sun's Avatar"
p1261
atp1262
Rp1263
sS'Commander 2015 Oversized'
p1264
g1
((lp1265
S'Mizzix of the Izmagnus'
p1266
aS'Daxos the Returned'
p1267
aS'Ezuri, Claw of Progress'
p1268
ag112
ag717
atp1269
Rp1270
sS'Mirrodin Besieged'
p1271
g1
((lp1272
g446
ag447
aS'Hero of Oxid Ridge'
p1273
atp1274
Rp1275
sS'Magic 2011 Promos'
p1276
g1
((lp1277
g108
atp1278
Rp1279
sS'Duel Decks: Jace vs. Chandra'
p1280
g1
((lp1281
g706
ag276
atp1282
Rp1283
sS'Duel Decks: Mind vs. Might'
p1284
g1
((lp1285
g208
ag198
atp1286
Rp1287
sS'Commander 2018'
p1288
g1
((lp1289
g800
aS'Hydra Omnivore'
p1290
ag310
aS'Brudiclad, Telchor Engineer'
p1291
ag517
aS'Yennett, Cryptic Sovereign'
p1292
aS'Tuvasa the Sunlit'
p1293
ag804
ag1096
ag487
aS'Thantis, the Warweaver'
p1294
ag955
aS'Kestia, the Cultivator'
p1295
ag516
ag567
aS'Varina, Lich Queen'
p1296
ag515
aS"Tawnos, Urza's Apprentice"
p1297
aS'Gyrus, Waker of Corpses'
p1298
ag518
atp1299
Rp1300
sS'From the Vault: Angels'
p1301
g1
((lp1302
g712
aS'Archangel of Strife'
p1303
aS'Serra Angel'
p1304
ag457
ag1037
aS'Iridescent Angel'
p1305
aS'Jenara, Asura of War'
p1306
ag474
aS'Lightning Angel'
p1307
ag703
ag567
aS'Exalted Angel'
p1308
ag846
ag510
ag772
atp1309
Rp1310
sS'Commander 2014 Oversized'
p1311
g1
((lp1312
g1239
ag123
ag1241
ag1243
ag714
atp1313
Rp1314
sS'Archenemy: Nicol Bolas'
p1315
g1
((lp1316
g807
ag305
ag108
ag828
ag1032
ag122
ag791
ag721
atp1317
Rp1318
sS'San Diego Comic-Con 2018'
p1319
g1
((lp1320
g1112
ag1259
ag1110
ag262
ag1146
atp1321
Rp1322
sS'San Diego Comic-Con 2017'
p1323
g1
((lp1324
g256
ag1223
ag262
ag253
ag1112
ag761
atp1325
Rp1326
sS'San Diego Comic-Con 2016'
p1327
g1
((lp1328
g31
ag81
ag30
ag1223
ag732
atp1329
Rp1330
sS'San Diego Comic-Con 2015'
p1331
g1
((lp1332
g334
ag332
ag333
aS'Nissa, Vastwood Seer '
p1333
ag339
ag340
atp1334
Rp1335
sS'San Diego Comic-Con 2014'
p1336
g1
((lp1337
g807
ag791
ag468
ag808
ag805
ag802
atp1338
Rp1339
sS'San Diego Comic-Con 2013'
p1340
g1
((lp1341
g309
ag316
ag790
ag318
ag791
atp1342
Rp1343
sS'Core Set 2019 Promos'
p1344
g1
((lp1345
g1138
ag1139
ag1140
ag1141
ag1143
ag1144
ag1146
ag1147
ag1149
ag1150
ag1151
ag1153
ag1154
ag315
ag1156
ag1158
atp1346
Rp1347
sS'Modern Masters'
p1348
g1
((lp1349
g270
atp1350
Rp1351
sS'Commander 2011'
p1352
g1
((lp1353
g712
ag106
ag919
ag151
ag120
ag920
ag121
ag244
ag109
ag921
ag718
ag769
ag722
ag452
atp1354
Rp1355
sS'Commander 2013'
p1356
g1
((lp1357
g681
atp1358
Rp1359
sS'Commander 2015'
p1360
g1
((lp1361
g364
ag107
ag108
ag111
ag1268
ag112
ag1229
ag116
ag715
ag717
aS'Kaseto, Orochi Archmage'
p1362
ag1266
ag719
aS'Prime Speaker Zegana'
p1363
ag720
ag122
ag1267
aS'Arjun, the Shifting Flame'
p1364
ag722
aS'Karlov of the Ghost Council'
p1365
atp1366
Rp1367
sS'Commander 2014'
p1368
g1
((lp1369
S'Ghoulcaller Gisa'
p1370
ag705
ag714
ag117
ag702
atp1371
Rp1372
sS'Commander 2017'
p1373
g1
((lp1374
g1120
ag854
ag219
ag785
ag654
aS'Jazal Goldmane'
p1375
ag356
ag213
ag214
ag197
ag221
aS'Mairsil, the Pretender'
p1376
aS'Clone Legion'
p1377
ag200
ag216
ag215
ag199
aS'Utvara Hellkite'
p1378
aS'Ryusei, the Falling Star'
p1379
ag203
ag220
ag245
ag722
aS"Mirari's Wake"
p1380
atp1381
Rp1382
sS'Commander 2016'
p1383
g1
((lp1384
g120
ag992
ag1202
ag836
atp1385
Rp1386
sS'Duels of the Planeswalkers Promos 2014'
p1387
g1
((lp1388
g811
ag806
atp1389
Rp1390
sS'Magic Online Promos'
p1391
g1
((lp1392
S"Gaea's Cradle"
p1393
ag31
ag986
ag879
ag654
ag954
ag151
ag700
ag1036
ag572
ag79
ag807
ag718
ag702
ag1153
ag920
ag791
aS'Sheoldred, Whispering One'
p1394
ag281
ag447
ag439
ag722
ag458
ag828
ag305
ag108
ag228
ag1207
ag8
ag84
ag487
ag33
aS'Dragon Broodmother'
p1395
ag452
ag117
ag686
ag1234
ag446
ag276
ag684
ag312
ag1020
ag809
ag14
ag122
ag16
ag884
ag947
ag721
ag23
ag566
ag97
atp1396
Rp1397
sS'New Phyrexia Promos'
p1398
g1
((lp1399
g1394
atp1400
Rp1401
sS'Pro Tour Promos'
p1402
g1
((lp1403
g16
ag700
ag8
ag23
atp1404
Rp1405
sS'Duels of the Planeswalkers Promos 2011'
p1406
g1
((lp1407
g705
ag702
ag122
atp1408
Rp1409
sS'Duel Decks: Merfolk vs. Goblins'
p1410
g1
((lp1411
g193
ag218
atp1412
Rp1413
sS'Legacy Championship'
p1414
g1
((lp1415
g1393
aS'Volcanic Island'
p1416
aS'Badlands'
p1417
aS'Savannah'
p1418
aS'Underground Sea'
p1419
aS'Tundra'
p1420
aS'Scrubland'
p1421
aS'Plateau'
p1422
aS'Taiga'
p1423
atp1424
Rp1425
s.