ccollections
defaultdict
p0
(c__builtin__
set
p1
tp2
Rp3
S'Ultimate Masters'
p4
g1
((lp5
S'Demonic Tutor'
p6
aS'Noble Hierarch'
p7
aS'Creeping Tar Pit'
p8
aS'Stirring Wildwood'
p9
aS'Maelstrom Pulse'
p10
aS'Reanimate'
p11
aS'Gaddock Teeg'
p12
aS'Lavaclaw Reaches'
p13
aS'Through the Breach'
p14
aS'Tasigur, the Golden Fang'
p15
aS'Entomb'
p16
aS'Celestial Colonnade'
p17
aS"Goryo's Vengeance"
p18
aS'Engineered Explosives'
p19
aS'Life from the Loam'
p20
aS'Raging Ravine'
p21
aS'Fulminator Mage'
p22
aS'Urborg, Tomb of Yawgmoth'
p23
aS'Ancient Tomb'
p24
atp25
Rp26
sS'Guilds of Ravnica'
p27
g1
((lp28
S'Legion Warboss'
p29
aS'Connive // Concoct'
p30
aS'Mausoleum Secrets'
p31
aS'Assure // Assemble'
p32
aS'Deafening Clarion'
p33
aS'Expansion // Explosion'
p34
aS"Firemind's Research"
p35
aS'Drowned Secrets'
p36
aS'Light of the Legion'
p37
aS'Dawn of Hope'
p38
aS'Bounty Agent'
p39
aS'Find // Finality'
p40
aS'Overgrown Tomb'
p41
aS'Mission Briefing'
p42
aS'Swiftblade Vindicator'
p43
aS'Chamber Sentry'
p44
aS'Niv-Mizzet, Parun'
p45
aS'Charnel Troll'
p46
aS'Emmara, Soul of the Accord'
p47
aS'Etrata, the Silencer'
p48
aS'Temple Garden'
p49
aS"Ral's Dispersal"
p50
aS"Vraska's Stoneglare"
p51
aS'Narcomoeba'
p52
aS'Experimental Frenzy'
p53
aS'Unmoored Ego'
p54
aS'Blood Operative'
p55
aS'Hatchery Spider'
p56
aS'Camaraderie'
p57
aS'Response // Resurgence'
p58
aS'Thief of Sanity'
p59
aS'Sacred Foundry'
p60
aS'Erratic Cyclops'
p61
aS'Steam Vents'
p62
aS'Quasiduplicate'
p63
aS'Risk Factor'
p64
aS'Midnight Reaper'
p65
aS'Ritual of Soot'
p66
aS'Omnispell Adept'
p67
aS'Runaway Steam-Kin'
p68
aS'Pelt Collector'
p69
aS'Gruesome Menagerie'
p70
aS'Vivid Revival'
p71
aS'Beast Whisperer'
p72
aS"Assassin's Trophy"
p73
aS"Guildmages' Forum"
p74
aS'Chromatic Lantern'
p75
aS'Knight of Autumn'
p76
aS'Ionize'
p77
aS'Citywide Bust'
p78
aS'Watery Grave'
p79
aS"Tajic, Legion's Edge"
p80
aS'Bounty of Might'
p81
aS'Venerated Loxodon'
p82
aS'Izoni, Thousand-Eyed'
p83
atp84
Rp85
sS'Duel Decks: Mirrodin Pure vs. New Phyrexia'
p86
g1
((lp87
S'Protean Hulk'
p88
aS'Reprocess'
p89
aS"Black Sun's Zenith"
p90
aS'Kuldotha Forgemaster'
p91
aS"White Sun's Zenith"
p92
aS'Duplicant'
p93
aS'Desecration Elemental'
p94
aS'Argent Sphinx'
p95
aS'Grand Architect'
p96
aS'Mitotic Slime'
p97
aS'Necroskitter'
p98
aS'Blinkmoth Nexus'
p99
aS'Phyrexian Altar'
p100
aS'Silent Arbiter'
p101
atp102
Rp103
sS'Battle for Zendikar'
p104
g1
((lp105
S'Emeria Shepherd'
p106
aS'Dust Stalker'
p107
aS'Felidar Sovereign'
p108
aS'Exert Influence'
p109
aS'Guul Draz Overseer'
p110
aS'Fathom Feeder'
p111
aS'Guardian of Tazeem'
p112
aS'Hero of Goma Fada'
p113
aS'From Beyond'
p114
aS'Drowner of Hope'
p115
aS'Gruesome Slaughter'
p116
aS'Endless One'
p117
atp118
Rp119
sS'Shadowmoor'
p120
g1
((lp121
S'Godhead of Awe'
p122
aS'Furystoke Giant'
p123
aS'Heartmender'
p124
aS'Hollowborn Barghest'
p125
aS'Graven Cairns'
p126
aS'Grim Poppet'
p127
aS'Elemental Mastery'
p128
aS'Everlasting Torment'
p129
aS'Glen Elendra Liege'
p130
aS'Greater Auramancy'
p131
ag22
aS'Dusk Urchins'
p132
aS'Ghastlord of Fugue'
p133
aS'Fire-Lit Thicket'
p134
aS'Enchanted Evening'
p135
aS'Fracturing Gust'
p136
atp137
Rp138
sS'Duel Decks: Phyrexia vs. the Coalition'
p139
g1
((lp140
S'Darigaaz, the Igniter'
p141
aS'Phyrexian Colossus'
p142
aS'Phyrexian Processor'
p143
aS'Phyrexian Arena'
p144
aS'Treva, the Renewer'
p145
aS'Coalition Relic'
p146
aS'Living Death'
p147
aS'Rith, the Awakener'
p148
aS'Gerrard Capashen'
p149
aS'Phyrexian Plaguelord'
p150
atp151
Rp152
sS'Odyssey'
p153
g1
((lp154
S'Haunting Echoes'
p155
aS'Dwarven Shrine'
p156
aS'Earnest Fellowship'
p157
aS'Gravestorm'
p158
aS'Ground Seal'
p159
aS'Graceful Antelope'
p160
aS'Hint of Insanity'
p161
aS'Holistic Wisdom'
p162
aS'Extract'
p163
ag16
aS'Epicenter'
p164
atp165
Rp166
sS'You Make the Cube'
p167
g1
((lp168
S'Thrasios, Triton Hero'
p169
aS'Kindred Boon'
p170
aS'Hungry Lynx'
p171
aS'Deepglow Skate'
p172
aS'Firesong and Sunspeaker'
p173
aS'Kindred Summons'
p174
aS'Alms Collector'
p175
aS'Game of Chaos'
p176
aS'Ma Chao, Western Warrior'
p177
aS'Charging Cinderhorn'
p178
aS'Lady Sun'
p179
aS'Crystalline Crawler'
p180
aS"Teferi's Protection"
p181
aS"Benefactor's Draught"
p182
aS'Cao Ren, Wei Commander'
p183
aS'Wasitora, Nekoru Queen'
p184
aS'Hammer of Nazahn'
p185
aS'Aspect of Wolf'
p186
aS'Huang Zhong, Shu General'
p187
aS'Cruel Tutor'
p188
aS'Bloodsworn Steward'
p189
aS'Armory Automaton'
p190
aS'Lu Su, Wu Advisor'
p191
aS'The Unspeakable'
p192
aS'Splitting Slime'
p193
aS'Goblin Spymaster'
p194
aS'Stalking Leonin'
p195
aS'Taigam, Ojutai Master'
p196
aS'Zo-Zu the Punisher'
p197
aS'Kindred Dominance'
p198
aS'Patron of the Vein'
p199
aS'Shifting Shadow'
p200
aS'Tymna the Weaver'
p201
aS'Adriana, Captain of the Guard'
p202
aS'Sima Yi, Wei Field Marshal'
p203
aS'Stunt Double'
p204
aS'Goblin Goon'
p205
aS'Primeval Protector'
p206
aS'Balan, Wandering Knight'
p207
aS'Magus of the Will'
p208
aS"Kraum, Ludevic's Opus"
p209
aS'Reyhan, Last of the Abzan'
p210
aS'Faerie Artisans'
p211
aS'Skyline Despot'
p212
aS'Lady Zhurong, Warrior Queen'
p213
aS'Scalelord Reckoner'
p214
aS'Fortunate Few'
p215
aS'Pang Tong, "Young Phoenix"'
p216
aS"Duelist's Heritage"
p217
aS'Territorial Hellkite'
p218
aS'Kindred Discovery'
p219
aS'Fractured Identity'
p220
aS'Galecaster Colossus'
p221
aS'Kindred Charge'
p222
aS'Boneyard Scourge'
p223
aS'Kheru Mind-Eater'
p224
aS'Magus of the Mind'
p225
aS'Crimson Honor Guard'
p226
aS'Throne of the High City'
p227
aS'Runehorn Hellkite'
p228
aS'Zuo Ci, the Mocking Sage'
p229
aS'Xun Yu, Wei Advisor'
p230
aS'Disrupt Decorum'
p231
aS'Recruiter of the Guard'
p232
aS'Grenzo, Havoc Raiser'
p233
aS'Akiri, Line-Slinger'
p234
aS'Boompile'
p235
aS'Field of Dreams'
p236
aS"Conqueror's Flail"
p237
aS"Selvala's Stampede"
p238
aS'Traverse the Outlands'
p239
aS'Prismatic Geoscope'
p240
aS'Protector of the Crown'
p241
aS'Bloodforged Battle-Axe'
p242
aS'Qasali Slingers'
p243
aS'Entrapment Maneuver'
p244
aS'Keeper of Keys'
p245
aS'Izzet Chemister'
p246
aS'Custodi Lich'
p247
aS"Taigam, Sidisi's Hand"
p248
aS'Stonehoof Chieftain'
p249
aS'Curse of Vengeance'
p250
aS'Selfless Squire'
p251
aS'Custodi Soulbinders'
p252
atp253
Rp254
sS'Magic Online Theme Decks'
p255
g1
((lp256
S'Copy Enchantment'
p257
aS'Mangara of Corondor'
p258
aS"Umezawa's Jitte"
p259
aS'Decree of Justice'
p260
aS'Avatar of Woe'
p261
aS'Serra Avenger'
p262
aS'Karakas'
p263
aS'Enlightened Tutor'
p264
aS'Weathered Wayfarer'
p265
aS'Ethersworn Canonist'
p266
aS'Genesis'
p267
aS'Silence'
p268
aS'Miren, the Moaning Well'
p269
aS'Xira Arien'
p270
aS'Questing Phelddagrif'
p271
aS'Golgari Grave-Troll'
p272
ag144
aS'Illusionary Mask'
p273
ag20
aS"All Hallow's Eve"
p274
aS'Goblin Guide'
p275
aS'Vampiric Dragon'
p276
aS'Flagstones of Trokair'
p277
aS"Mirari's Wake"
p278
aS'Stoneforge Mystic'
p279
aS'Rubinia Soulsinger'
p280
atp281
Rp282
sS'Signature Spellbook: Jace'
p283
g1
((lp284
S'Threads of Disloyalty'
p285
aS'Mystical Tutor'
p286
aS'Counterspell'
p287
aS'Negate'
p288
aS'Blue Elemental Blast'
p289
aS'Gifts Ungiven'
p290
aS'Brainstorm'
p291
atp292
Rp293
sS'Magic 2012 Promos'
p294
g1
((lp295
S"Chandra's Phoenix"
p296
aS'Dungrove Elder'
p297
aS"Garruk's Horde"
p298
atp299
Rp300
sS'Duel Decks: Sorin vs. Tibalt'
p301
g1
((lp302
S'Sulfuric Vortex'
p303
aS'Death Grasp'
p304
aS'Lavaborn Muse'
p305
aS'Ancient Craving'
p306
aS"Devil's Play"
p307
aS'Breaking Point'
p308
aS'Butcher of Malakir'
p309
aS'Hellrider'
p310
aS'Twilight Drover'
p311
aS'Field of Souls'
p312
atp313
Rp314
sS'Mercadian Masques'
p315
g1
((lp316
S'Embargo'
p317
aS'High Market'
p318
aS"General's Regalia"
p319
aS'Heart of Ramos'
p320
aS'Horn of Plenty'
p321
aS'Food Chain'
p322
aS'Extortion'
p323
aS'Horn of Ramos'
p324
aS'Foster'
p325
aS'Extravagant Spirit'
p326
aS'Honor the Fallen'
p327
aS'Forced March'
p328
aS'Erithizon'
p329
aS'Game Preserve'
p330
aS'Fountain Watch'
p331
aS'Eye of Ramos'
p332
aS'Dust Bowl'
p333
aS'Flailing Manticore'
p334
atp335
Rp336
sS'Duel Decks: Zendikar vs. Eldrazi'
p337
g1
((lp338
S'Consume the Meek'
p339
ag9
aS"Seer's Sundial"
p340
aS'Hellion Eruption'
p341
aS'It That Betrays'
p342
ag309
aS'Primal Command'
p343
aS'Magmaw'
p344
aS'Scute Mob'
p345
aS'Veteran Warleader'
p346
atp347
Rp348
sS'Masters Edition II'
p349
g1
((lp350
S'Wolf Pack'
p351
aS'Fire Dragon'
p352
aS'Skeleton Ship'
p353
aS'Wiitigo'
p354
aS'Heart of Yavimaya'
p355
aS'Glacial Crevasses'
p356
aS'Mesmeric Trance'
p357
aS'Ravages of War'
p358
aS"Jester's Mask"
p359
aS'Marjhan'
p360
aS'Dreams of the Dead'
p361
aS"Ihsan's Shade"
p362
aS'Krovikan Horror'
p363
aS'Imperial Recruiter'
p364
aS'Lost Order of Jarkeld'
p365
aS'Kaysa'
p366
aS'Order of the Sacred Torch'
p367
aS'Grandmother Sengir'
p368
aS'Binding Grasp'
p369
aS'Fungal Bloom'
p370
aS'Dystopia'
p371
aS'Earthlink'
p372
aS'Infernal Darkness'
p373
aS'Minion of Leshrac'
p374
aS'Rogue Skycaptain'
p375
aS'Stromgald Cabal'
p376
aS'Sea Drake'
p377
aS'Pyrokinesis'
p378
aS'Angel of Fury'
p379
aS'Ebon Praetor'
p380
aS'Glacial Chasm'
p381
aS'Thelonite Druid'
p382
aS'Bounty of the Hunt'
p383
aS'Helm of Obedience'
p384
aS'Sibilant Spirit'
p385
aS'Stunted Growth'
p386
aS'Savannah'
p387
aS'Taiga'
p388
aS'An-Zerrin Ruins'
p389
aS'Ritual of Subdual'
p390
aS'Magus of the Unseen'
p391
aS'Anarchy'
p392
aS'Soldevi Excavations'
p393
aS'Balduvian Trading Post'
p394
aS'Storm Spirit'
p395
aS'Imperial Seal'
p396
aS'Despotic Scepter'
p397
aS'Necropotence'
p398
aS'Balduvian Hydra'
p399
aS'Caribou Range'
p400
aS'Badlands'
p401
aS'Thought Lash'
p402
aS'Royal Decree'
p403
aS'Temporal Manipulation'
p404
aS'Underground Sea'
p405
aS'Musician'
p406
aS'Kjeldoran Outpost'
p407
aS'Tundra'
p408
aS'Ivory Gargoyle'
p409
aS'Time Bomb'
p410
aS'Righteous Fury'
p411
aS'Brimstone Dragon'
p412
aS'Mudslide'
p413
aS'Ritual of the Machine'
p414
aS"Ashnod's Cylix"
p415
aS'Fyndhorn Pollen'
p416
aS'Elemental Augury'
p417
aS"Nature's Wrath"
p418
aS'Elkin Bottle'
p419
aS'Phyrexian Portal'
p420
aS"Winter's Night"
p421
aS'Elvish Farmer'
p422
aS'Lodestone Bauble'
p423
aS'Mana Crypt'
p424
aS'Orcish Squatters'
p425
aS'Sustaining Spirit'
p426
aS'Energy Storm'
p427
aS"Gustha's Scepter"
p428
aS'Deep Spawn'
p429
aS'Scars of the Veteran'
p430
atp431
Rp432
sS'Dissension'
p433
g1
((lp434
S'Haazda Shield Mate'
p435
aS'Evolution Vat'
p436
aS'Hide '
p437
aS'Elemental Resonance'
p438
aS'Experiment Kraj'
p439
aS'Grand Arbiter Augustin IV'
p440
aS"Aethermage's Touch"
p441
aS'Odds '
p442
aS'Hallowed Fountain'
p443
aS'Crime '
p444
aS'Research '
p445
aS'Bound '
p446
aS'Govern the Guildless'
p447
atp448
Rp449
sS'Masters Edition IV'
p450
g1
((lp451
S'Devastation'
p452
aS'Fire Tempest'
p453
aS'Guardian Beast'
p454
aS'Regrowth'
p455
aS'Cloud Dragon'
p456
aS'Conversion'
p457
aS'Serendib Djinn'
p458
aS'Bayou'
p459
aS'Plateau'
p460
aS'Library of Alexandria'
p461
aS'Cyclopean Tomb'
p462
aS'Rock Hydra'
p463
aS'Ice Cauldron'
p464
aS'Ring of Renewal'
p465
aS'Scarwood Bandits'
p466
aS'Leeches'
p467
aS'Floodwater Dam'
p468
aS'Lifeforce'
p469
aS'Deathgrip'
p470
aS'Obelisk of Undoing'
p471
aS'Gauntlet of Might'
p472
aS'Overwhelming Forces'
p473
aS'Word of Command'
p474
aS'Jade Monolith'
p475
ag6
aS'Gloom'
p476
aS'Eye for an Eye'
p477
aS'Time Vault'
p478
aS'Tropical Island'
p479
aS'Champion Lancer'
p480
aS'Sinkhole'
p481
aS'Fastbond'
p482
aS'Tsunami'
p483
aS'Wheel of Fortune'
p484
aS'Thunder Dragon'
p485
aS'Drain Power'
p486
aS'Ebon Dragon'
p487
aS'Balance'
p488
aS'Volcanic Island'
p489
aS'Harsh Justice'
p490
aS'Vibrating Sphere'
p491
aS'Mana Matrix'
p492
ag387
aS'Strip Mine'
p493
aS'Force of Nature'
p494
aS'Steam Catapult'
p495
aS'Minion of Tevesh Szat'
p496
aS'Tetravus'
p497
ag388
aS'Rakalite'
p498
aS'Copy Artifact'
p499
aS'Candelabra of Tawnos'
p500
aS"Ashnod's Altar"
p501
aS'Aladdin'
p502
aS'Colossus of Sardia'
p503
aS'Braingeyser'
p504
aS"Titania's Song"
p505
aS"Mishra's Workshop"
p506
aS'Personal Incarnation'
p507
aS'Sedge Troll'
p508
aS'Mahamoti Djinn'
p509
aS'Cyclone'
p510
aS"Alchor's Tomb"
p511
aS'Channel'
p512
ag401
aS'Fork'
p513
aS'In the Eye of Chaos'
p514
aS'Mana Vault'
p515
ag405
aS'Stasis'
p516
aS'Naked Singularity'
p517
ag408
aS'Bottle of Suleiman'
p518
aS'Maze of Ith'
p519
aS'Dread Reaper'
p520
aS'Triassic Egg'
p521
aS'Veteran Bodyguard'
p522
aS"Martyr's Cry"
p523
aS'Drop of Honey'
p524
aS"Urza's Miter"
p525
aS'Armageddon Clock'
p526
aS'Deathcoil Wurm'
p527
aS'Acid Rain'
p528
aS'Shivan Dragon'
p529
aS'Kormus Bell'
p530
aS'Sol Ring'
p531
aS'Mijae Djinn'
p532
aS'Smoke'
p533
aS'Last Chance'
p534
aS'Lich'
p535
aS'Control Magic'
p536
aS'Island Sanctuary'
p537
aS'Thing from the Deep'
p538
aS'Rain of Daggers'
p539
aS'Kismet'
p540
aS'City of Brass'
p541
aS'Wood Elemental'
p542
aS'Scrubland'
p543
aS'Demonic Hordes'
p544
aS'Ali from Cairo'
p545
aS"Al-abara's Carpet"
p546
aS'Power Artifact'
p547
aS'Armageddon'
p548
aS'Living Lands'
p549
aS'Transmute Artifact'
p550
atp551
Rp552
sS'Fate Reforged Promos'
p553
g1
((lp554
S'Temur War Shaman'
p555
aS'Mardu Strike Leader'
p556
aS'Wildcall'
p557
aS'Supplant Form'
p558
aS'Alesha, Who Smiles at Death'
p559
aS'Yasova Dragonclaw'
p560
aS"Kolaghan, the Storm's Fury"
p561
aS'Ojutai, Soul of Winter'
p562
aS'Sandsteppe Mastodon'
p563
ag15
aS'Daghatar the Adamant'
p564
aS'Soulflayer'
p565
aS'Shu Yun, the Silent Tempest'
p566
aS'Sage-Eye Avengers'
p567
aS'Archfiend of Depravity'
p568
aS'Dragonscale General'
p569
aS'Flamewake Phoenix'
p570
aS'Mastery of the Unseen'
p571
aS'Jeskai Infiltrator'
p572
aS'Arcbond'
p573
aS'Dromoka, the Eternal'
p574
aS'Silumgar, the Drifting Death'
p575
aS'Rally the Ancestors'
p576
aS'Atarka, World Render'
p577
aS'Shamanic Revelation'
p578
aS'Flamerush Rider'
p579
atp580
Rp581
sS'Magic Origins Promos'
p582
g1
((lp583
S'Goblin Piledriver'
p584
aS'Graveblade Marauder'
p585
aS'Harbinger of the Tides'
p586
aS'Kothophed, Soul Hoarder'
p587
aS"Gaea's Revenge"
p588
aS'Embermaw Hellion'
p589
aS'Mizzium Meddler'
p590
aS'Gilt-Leaf Winnower'
p591
aS'Abbot of Keral Keep'
p592
aS"Nissa's Revelation"
p593
aS"Gideon's Phalanx"
p594
aS'Managorger Hydra'
p595
aS'Outland Colossus'
p596
aS'Soulblade Djinn'
p597
aS'Despoiler of Souls'
p598
aS'Scab-Clan Berserker'
p599
aS'Willbreaker'
p600
aS'Exquisite Firecraft'
p601
aS'Dark Petition'
p602
aS'Tragic Arrogance'
p603
aS"Kytheon's Irregulars"
p604
aS'Alhammarret, High Arbiter'
p605
aS'Priest of the Blood Rite'
p606
aS'Hixus, Prison Warden'
p607
aS'Thopter Spy Network'
p608
aS'Vryn Wingmare'
p609
aS'Evolutionary Leap'
p610
aS"Chandra's Ignition"
p611
aS'Relic Seeker'
p612
aS'Honored Hierarch'
p613
aS'Talent of the Telepath'
p614
aS'Dwynen, Gilt-Leaf Daen'
p615
aS'Knight of the White Orchid'
p616
aS'Pia and Kiran Nalaar'
p617
aS'Languish'
p618
atp619
Rp620
sS'Dragons of Tarkir Promos'
p621
g1
((lp622
S'Hidden Dragonslayer'
p623
aS'Necromaster Dragon'
p624
aS'Anafenza, Kin-Tree Spirit'
p625
aS'Sunscorch Regent'
p626
aS'Volcanic Vision'
p627
aS"Ojutai's Command"
p628
aS"Kolaghan's Command"
p629
aS'Surrak, the Hunt Caller'
p630
aS'Profaner of the Dead'
p631
aS'Arashin Foremost'
p632
aS'Pitiless Horde'
p633
aS"Dromoka's Command"
p634
aS"Silumgar's Command"
p635
aS'Icefall Regent'
p636
aS'Boltwing Marauder'
p637
aS'Zurgo Bellstriker'
p638
aS'Den Protector'
p639
aS'Arashin Sovereign'
p640
aS'Blood-Chin Fanatic'
p641
aS'Harbinger of the Hunt'
p642
aS'Living Lore'
p643
aS'Silumgar Assassin'
p644
aS'Dragonlord Atarka'
p645
aS'Foe-Razer Regent'
p646
aS'Crater Elemental'
p647
aS'Pristine Skywise'
p648
aS'Stratus Dancer'
p649
aS'Ire Shaman'
p650
aS'Damnable Pact'
p651
aS'Avatar of the Resolute'
p652
aS"Atarka's Command"
p653
aS'Myth Realized'
p654
aS'Thunderbreak Regent'
p655
aS'Deathbringer Regent'
p656
aS'Sidisi, Undead Vizier'
p657
aS'Blessed Reincarnation'
p658
atp659
Rp660
sS'Champions of Kamigawa'
p661
g1
((lp662
S'Hair-Strung Koto'
p663
aS'Hall of the Bandit Lord'
p664
aS'He Who Hungers'
p665
aS'Eiganjo Castle'
p666
aS'Glimpse of Nature'
p667
aS'Hikari, Twilight Guardian'
p668
aS'Godo, Bandit Warlord'
p669
aS"General's Kabuto"
p670
aS'Hold the Line'
p671
ag290
aS'Hisoka, Minamo Sensei'
p672
aS"Horobi, Death's Wail"
p673
aS'Forbidden Orchard'
p674
aS'Heartbeat of Spring'
p675
aS'Eight-and-a-Half-Tails'
p676
atp677
Rp678
sS'Commander 2011 Launch Party'
p679
g1
((lp680
S'Edric, Spymaster of Trest'
p681
aS'Basandra, Battle Seraph'
p682
aS'Skullbriar, the Walking Grave'
p683
aS'Vish Kal, Blood Arbiter'
p684
aS'Nin, the Pain Artist'
p685
atp686
Rp687
sS'Time Spiral Timeshifted'
p688
g1
((lp689
S'Darkness'
p690
aS'Dand\xc3\xa2n'
p691
aS'Ovinomancer'
p692
aS'Honorable Passage'
p693
aS'Squire'
p694
aS'Assault // Battery'
p695
aS'Grinning Totem'
p696
aS'Auratog'
p697
aS'Cockatrice'
p698
aS'Dodecapod'
p699
aS'Disenchant'
p700
aS'Valor'
p701
aS'Sindbad'
p702
aS'Uncle Istvan'
p703
aS'Shadowmage Infiltrator'
p704
aS'Browbeat'
p705
aS'Coalition Victory'
p706
aS'Spike Feeder'
p707
aS'Serrated Arrows'
p708
aS"Teferi's Moat"
p709
aS'Willbender'
p710
aS'Scragnoth'
p711
aS'Lord of Atlantis'
p712
aS'Disintegrate'
p713
aS'Resurrection'
p714
aS'War Barge'
p715
aS'Call of the Herd'
p716
aS'Consecrate Land'
p717
aS'Withered Wretch'
p718
aS'Stupor'
p719
aS'Undertaker'
p720
aS'Craw Giant'
p721
aS'Ghost Ship'
p722
aS'Tribal Flames'
p723
aS'Vhati il-Dal'
p724
aS'Pandemonium'
p725
aS'Funeral Charm'
p726
aS'Leviathan'
p727
aS'Avoid Fate'
p728
aS'Wildfire Emissary'
p729
aS'Avalanche Riders'
p730
aS'Shadow Guildmage'
p731
aS'Safe Haven'
p732
aS'Fire Whip'
p733
aS'The Rack'
p734
aS'Mindless Automaton'
p735
aS'Kobold Taskmaster'
p736
aS'Mystic Enforcer'
p737
aS"Suq'Ata Lancer"
p738
aS'Jolrael, Empress of Beasts'
p739
aS"Sol'kanar the Swamp King"
p740
aS'Wall of Roots'
p741
aS'Desert'
p742
aS'Verdeloth the Ancient'
p743
aS'Dauthi Slayer'
p744
aS"Gaea's Blessing"
p745
aS'Soltari Priest'
p746
aS'Icatian Javelineers'
p747
aS'Sengir Autocrat'
p748
aS'Stormbind'
p749
aS'Krosan Cloudscraper'
p750
aS'Prodigal Sorcerer'
p751
aS'Undead Warchief'
p752
aS'Bad Moon'
p753
aS'Nicol Bolas'
p754
aS'Fiery Justice'
p755
aS'Merfolk Assassin'
p756
aS'Faceless Butcher'
p757
aS'Mistform Ultimus'
p758
aS'Pendelhaven'
p759
ag261
aS'Essence Sliver'
p760
aS'Stormscape Familiar'
p761
aS'Thornscape Battlemage'
p762
aS'Whispers of the Muse'
p763
aS'Claws of Gix'
p764
aS'Zhalfirin Commander'
p765
aS'Thallid'
p766
aS'Soul Collector'
p767
aS'Swamp Mosquito'
p768
aS"Feldon's Cane"
p769
aS"Gaea's Liege"
p770
aS'Jasmine Boreal'
p771
aS'Dragonstorm'
p772
aS'Unstable Mutation'
p773
aS'Mystic Snake'
p774
aS'Sacred Mesa'
p775
aS'Spitting Slug'
p776
aS'Mirari'
p777
aS'Void'
p778
aS'Celestial Dawn'
p779
aS'Gemstone Mine'
p780
aS'Evil Eye of Orms-by-Gore'
p781
aS'Fiery Temper'
p782
aS'Psionic Blast'
p783
aS'Dragon Whelp'
p784
aS'Arena'
p785
aS'Eron the Relentless'
p786
aS'Goblin Snowman'
p787
aS'Spined Sliver'
p788
aS'Orcish Librarian'
p789
aS'Pirate Ship'
p790
aS'Orgg'
p791
aS"Tormod's Crypt"
p792
aS'Witch Hunter'
p793
aS'Hunting Moa'
p794
aS'Twisted Abomination'
p795
aS'Desolation Giant'
p796
aS'Moorish Cavalry'
p797
aS'Enduring Renewal'
p798
aS'Flying Men'
p799
aS'Voidmage Prodigy'
p800
aS'Lightning Angel'
p801
aS'Hail Storm'
p802
aS'Uthden Troll'
p803
aS'Whirling Dervish'
p804
aS'Conspiracy'
p805
aS'Defiant Vanguard'
p806
aS'Akroma, Angel of Wrath'
p807
aS'Giant Oyster'
p808
aS'Merieke Ri Berit'
p809
atp810
Rp811
sS'Aether Revolt Promos'
p812
g1
((lp813
S'Hope of Ghirapur'
p814
aS"Lifecrafter's Bestiary"
p815
aS'Rishkar, Peema Renegade'
p816
aS'Metallic Mimic'
p817
aS'Heroic Intervention'
p818
aS'Kari Zev, Skyship Raider'
p819
aS'Aethergeode Miner'
p820
aS'Aethertide Whale'
p821
aS'Quicksmith Spy'
p822
aS"Baral's Expertise"
p823
aS'Greenwheel Liberator'
p824
aS'Release the Gremlins'
p825
aS'Call for Unity'
p826
aS'Disallow'
p827
aS'Secret Salvage'
p828
aS"Rishkar's Expertise"
p829
aS'Peacewalker Colossus'
p830
aS'Freejam Regent'
p831
aS'Aid from the Cowl'
p832
aS'Inspiring Statuary'
p833
aS'Walking Ballista'
p834
aS'Consulate Crackdown'
p835
aS"Pia's Revolution"
p836
aS'Midnight Entourage'
p837
aS'Glint-Sleeve Siphoner'
p838
aS'Quicksmith Rebel'
p839
aS'Solemn Recruit'
p840
aS'Sram, Senior Edificer'
p841
aS'Yahenni, Undying Partisan'
p842
aS"Sram's Expertise"
p843
aS'Dark Intimations'
p844
aS'Scrap Trawler'
p845
aS'Greenbelt Rampager'
p846
aS'Spire of Industry'
p847
aS"Yahenni's Expertise"
p848
aS"Kari Zev's Expertise"
p849
aS'Whir of Invention'
p850
aS'Battle at the Bridge'
p851
aS'Aethersphere Harvester'
p852
aS"Merchant's Dockhand"
p853
aS'Baral, Chief of Compliance'
p854
aS'Oath of Ajani'
p855
atp856
Rp857
sS'Commander 2013 Oversized'
p858
g1
((lp859
S"Sek'Kuar, Deathkeeper"
p860
ag280
atp861
Rp862
sS'URL/Convention Promos'
p863
g1
((lp864
S"Chandra's Fury"
p865
aS'Bloodthrone Vampire'
p866
aS'Steward of Valeron'
p867
aS'Stealer of Secrets'
p868
aS'Kor Skyfisher'
p869
aS'Merfolk Mesmerist'
p870
atp871
Rp872
sS'Betrayers of Kamigawa'
p873
g1
((lp874
S'Final Judgment'
p875
ag18
aS'Genju of the Realm'
p876
aS'Higure, the Still Wind'
p877
aS"Hero's Demise"
p878
aS'Hokori, Dust Drinker'
p879
aS'Fumiko the Lowblood'
p880
aS'Enshrined Memories'
p881
aS'Heartless Hidetsugu'
p882
atp883
Rp884
sS'Ice Age'
p885
g1
((lp886
S'Flow of Maggots'
p887
aS'M\xc3\xa1rton Stromgald'
p888
aS'Glaciers'
p889
aS'Hecatomb'
p890
aS'Game of Chaos'
p891
aS'Elder Druid'
p892
aS"Freyalise's Winds"
p893
aS'Oath of Lim-D\xc3\xbbl'
p894
aS'Flooded Woodlands'
p895
aS'Formation'
p896
aS'Dwarven Armory'
p897
aS'Hot Springs'
p898
aS'Earthlink'
p899
aS'Ghostly Flame'
p900
aS'Forbidden Lore'
p901
aS'Elemental Augury'
p902
aS'General Jarkeld'
p903
aS'Goblin Lyre'
p904
aS'Enduring Renewal'
p905
aS'Fyndhorn Pollen'
p906
aS'Elkin Bottle'
p907
aS'Glacial Crevasses'
p908
aS'Energy Storm'
p909
aS'Fiery Justice'
p910
aS'Halls of Mist'
p911
aS'Gravebind'
p912
atp913
Rp914
sS'Starter 2000'
p915
g1
((lp916
S'Rhox'
p917
atp918
Rp919
sS'Nemesis'
p920
g1
((lp921
S'Flowstone Overseer'
p922
aS'Eye of Yawgmoth'
p923
aS'Aether Barrier'
p924
aS'Flowstone Slide'
p925
atp926
Rp927
sS'Legends'
p928
g1
((lp929
S'Gwendlyn Di Corci'
p930
aS'Forethought Amulet'
p931
aS'Gabriel Angelfire'
p932
aS'Elven Riders'
p933
aS"Hell's Caretaker"
p934
aS'Hazezon Tamar'
p935
aS'Field of Dreams'
p936
aS'Falling Star'
p937
aS'Eureka'
p938
aS'Horn of Deafening'
p939
aS'Elder Spawn'
p940
aS'Gravity Sphere'
p941
aS'Greed'
p942
aS'Halfdane'
p943
aS'Hellfire'
p944
aS'Gauntlets of Chaos'
p945
aS'Elder Land Wurm'
p946
aS'Gosta Dirk'
p947
aS'Firestorm Phoenix'
p948
atp949
Rp950
sS'Magic 2014'
p951
g1
((lp952
S'Thorncaster Sliver'
p953
aS'Galerider Sliver'
p954
aS'Goblin Diplomats'
p955
aS'Nightmare'
p956
aS'Guardian of the Ages'
p957
aS'Door of Destinies'
p958
aS'Bonescythe Sliver'
p959
aS'Lifebane Zombie'
p960
aS'Strionic Resonator'
p961
aS'Trading Post'
p962
aS'Bogbrew Witch'
p963
aS'Imposing Sovereign'
p964
aS'Mutavault'
p965
ag298
aS'Vastwood Hydra'
p966
aS'Oath of the Ancient Wood'
p967
aS'Clone'
p968
aS'Burning Earth'
p969
aS'Colossal Whale'
p970
aS'Planar Cleansing'
p971
aS'Into the Wilds'
p972
aS'Savage Summoning'
p973
aS'Ratchet Bomb'
p974
aS'Elite Arcanist'
p975
aS'Witchstalker'
p976
aS'Xathrid Necromancer'
p977
aS'Dark Prophecy'
p978
aS'Fiendslayer Paladin'
p979
aS'Traumatize'
p980
aS'Mindsparker'
p981
aS'Indestructibility'
p982
aS'Grim Return'
p983
aS'Path of Bravery'
p984
ag529
aS'Ogre Battledriver'
p985
aS'Awaken the Ancient'
p986
aS'Haunted Plate Mail'
p987
aS'Dismiss into Dream'
p988
ag268
aS'Scavenging Ooze'
p989
aS'Sanguine Bond'
p990
aS"Liliana's Reaver"
p991
aS"Ajani's Chosen"
p992
aS'Seraph of the Sword'
p993
aS'Megantic Sliver'
p994
aS"Jace's Mindseeker"
p995
aS'Syphon Sliver'
p996
aS'Wild Ricochet'
p997
aS"Pyromancer's Gauntlet"
p998
aS'Tidebinder Mage'
p999
ag296
aS'Domestication'
p1000
aS'Quicken'
p1001
atp1002
Rp1003
sS'Magic 2015'
p1004
g1
((lp1005
S'Spirit Bonds'
p1006
aS'Waste Not'
p1007
aS'Yisan, the Wanderer Bard'
p1008
aS'Siege Dragon'
p1009
aS'Genesis Hydra'
p1010
aS'Llanowar Wastes'
p1011
ag956
aS"Necromancer's Stockpile"
p1012
aS'Goblin Rabblemaster'
p1013
aS'Hoarding Dragon'
p1014
aS'Shield of the Avatar'
p1015
aS'Phyrexian Revoker'
p1016
ag509
aS'Crucible of Fire'
p1017
aS'Phytotitan'
p1018
aS'Jalira, Master Polymorphist'
p1019
aS'Aegis Angel'
p1020
aS'Return to the Ranks'
p1021
aS"Life's Legacy"
p1022
aS'Scuttling Doom Engine'
p1023
ag23
aS'Shivan Reef'
p1024
aS'Hushwing Gryff'
p1025
aS'Chasm Skulker'
p1026
aS'Obelisk of Urd'
p1027
aS'Burning Anger'
p1028
aS'Mercurial Pretender'
p1029
aS'Resolute Archangel'
p1030
aS'Aggressive Mining'
p1031
aS'Yavimaya Coast'
p1032
aS'Sliver Hive'
p1033
ag529
aS'Aetherspouts'
p1034
aS"In Garruk's Wake"
p1035
aS'Spectra Ward'
p1036
aS'Goblin Kaboomist'
p1037
aS'Avacyn, Guardian Angel'
p1038
ag987
aS'Avarice Amulet'
p1039
aS'Chord of Calling'
p1040
aS'Kalonian Twingrove'
p1041
aS'Preeminent Captain'
p1042
aS'Hornet Nest'
p1043
aS'Caves of Koilos'
p1044
aS'Kurkesh, Onakke Ancient'
p1045
aS'Grindclock'
p1046
aS'Mass Calcify'
p1047
aS'Indulgent Tormentor'
p1048
aS'Stormtide Leviathan'
p1049
aS'Master of Predicaments'
p1050
aS'Cruel Sadist'
p1051
aS'Stain the Mind'
p1052
aS'Chief Engineer'
p1053
aS'Hornet Queen'
p1054
aS"Polymorphist's Jest"
p1055
aS'Terra Stomper'
p1056
aS'Battlefield Forge'
p1057
aS'Ob Nixilis, Unshackled'
p1058
atp1059
Rp1060
sS'Magic 2010'
p1061
g1
((lp1062
S'Great Sable Stag'
p1063
aS'Ant Queen'
p1064
aS'Twincast'
p1065
aS'Polymorph'
p1066
aS'Rootbound Crag'
p1067
ag956
aS'Howling Mine'
p1068
aS'Mind Spring'
p1069
aS'Magebane Armor'
p1070
aS'Kalonian Behemoth'
p1071
aS'Elvish Archdruid'
p1072
aS'Elvish Piper'
p1073
aS'Coat of Arms'
p1074
ag155
aS'Magma Phoenix'
p1075
aS'Open the Vaults'
p1076
aS'Mirror of Fate'
p1077
ag968
aS'Drowned Catacomb'
p1078
ag971
aS'Birds of Paradise'
p1079
aS'Djinn of Wishes'
p1080
aS'Glacial Fortress'
p1081
aS'Earthquake'
p1082
aS'Goblin Chieftain'
p1083
aS'Captain of the Watch'
p1084
ag980
aS'Manabarbs'
p1085
ag982
aS'Hypnotic Specter'
p1086
aS'Pithing Needle'
p1087
aS'Mind Shatter'
p1088
aS'Underworld Dreams'
p1089
aS'Hive Mind'
p1090
aS'Ball Lightning'
p1091
aS'Warp World'
p1092
aS'Siege-Gang Commander'
p1093
ag529
aS'Mesa Enchantress'
p1094
aS'Lurking Predators'
p1095
ag268
ag990
aS'Dragonskull Summit'
p1096
aS'Lightwielder Paladin'
p1097
aS'Honor of the Pure'
p1098
aS'Might of Oaks'
p1099
aS'Gargoyle Castle'
p1100
aS'Guardian Seraph'
p1101
aS'Sunpetal Grove'
p1102
aS'Cemetery Reaper'
p1103
aS'Royal Assassin'
p1104
aS'Capricious Efreet'
p1105
aS'Merfolk Sovereign'
p1106
atp1107
Rp1108
sS'Magic 2011'
p1109
g1
((lp1110
S'Destructive Force'
p1111
aS'Redirect'
p1112
aS'Dark Tutelage'
p1113
aS'Mystifying Maze'
p1114
ag1067
ag980
aS'Captivating Vampire'
p1115
aS'Protean Hydra'
p1116
aS'Wild Evocation'
p1117
aS'Knight Exemplar'
p1118
ag97
ag1072
ag1078
aS'Steel Overseer'
p1119
ag1096
ag155
aS'Fauna Shaman'
p1120
aS'Nantuko Shade'
p1121
aS'Leyline of Anticipation'
p1122
ag968
aS'Conundrum Sphinx'
p1123
ag1079
aS'Reverberate'
p1124
ag1081
ag1083
aS'Ancient Hellkite'
p1125
aS'Cyclops Gladiator'
p1126
aS'Obstinate Baloth'
p1127
ag1104
aS'Leyline of the Void'
p1128
aS'Vengeful Archon'
p1129
ag1098
aS'Leyline of Sanctity'
p1130
aS'Leyline of Vitality'
p1131
ag1014
aS'Leyline of Punishment'
p1132
ag1075
aS'Day of Judgment'
p1133
ag268
aS'Necrotic Plague'
p1134
aS'Jinxed Idol'
p1135
aS'Serra Ascendant'
p1136
aS'Phylactery Lich'
p1137
aS'Temple Bell'
p1138
ag1049
ag1102
aS'Triskelion'
p1139
aS'Angelic Arbiter'
p1140
aS'Mass Polymorph'
p1141
aS'Sword of Vengeance'
p1142
ag1106
aS'Brittle Effigy'
p1143
aS'Overwhelming Stampede'
p1144
atp1145
Rp1146
sS'Magic 2012'
p1147
g1
((lp1148
S'Call to the Grave'
p1149
ag1112
aS"Sorin's Vengeance"
p1150
aS'Worldslayer'
p1151
aS'Skinshifter'
p1152
ag1094
aS'Quicksilver Amulet'
p1153
aS'Warstorm Surge'
p1154
aS"Jace's Archivist"
p1155
ag1072
ag297
ag1078
aS'Grim Lavamancer'
p1156
aS'Arachnus Spinner'
p1157
aS'Rune-Scarred Demon'
p1158
ag298
aS'Lord of the Unreal'
p1159
ag1020
aS'Visions of Beyond'
p1160
ag1079
aS'Rites of Flourishing'
p1161
ag1067
ag1124
aS'Solemn Simulacrum'
p1162
ag1103
aS'Druidic Satchel'
p1163
aS'Phantasmal Image'
p1164
aS'Monomania'
p1165
aS'Flameblast Dragon'
p1166
ag1085
ag1098
aS'Sutured Ghoul'
p1167
aS'Sphinx of Uthuun'
p1168
aS'Vengeful Pharaoh'
p1169
aS"Gideon's Avenger"
p1170
aS'Mind Unbound'
p1171
aS'Personal Sanctuary'
p1172
aS'Archon of Justice'
p1173
aS'Pentavus'
p1174
ag1133
ag1080
aS'Grand Abolisher'
p1175
aS'Adaptive Automaton'
p1176
ag1096
aS'Throne of Empires'
p1177
aS'Doubling Chant'
p1178
aS'Scrambleverse'
p1179
ag1081
aS'Sundial of the Infinite'
p1180
ag1102
ag1083
ag1104
ag296
atp1181
Rp1182
sS'Magic 2013'
p1183
g1
((lp1184
g1112
aS'Silklash Spider'
p1185
aS'Sands of Delirium'
p1186
aS'Predatory Rampage'
p1187
aS"Faith's Reward"
p1188
ag1067
aS'Nefarox, Overlord of Grixis'
p1189
aS'Void Stalker'
p1190
ag159
aS"Yeva, Nature's Herald"
p1191
ag262
ag962
aS'Fervor'
p1192
aS'Xathrid Gorgon'
p1193
ag1072
ag1078
aS'Door to Nothingness'
p1194
aS'Spelltwine'
p1195
aS'Hamletback Goliath'
p1196
ag968
aS'Krenko, Mob Boss'
p1197
aS'Stuffy Doll'
p1198
ag971
aS'Firewing Phoenix'
p1199
aS'Disciple of Bolas'
p1200
aS'Slumbering Dragon'
p1201
ag1124
ag1081
aS'Master of the Pearl Trident'
p1202
aS'Talrand, Sky Summoner'
p1203
aS'Quirion Dryad'
p1204
aS'Hellion Crucible'
p1205
ag1084
aS'Shimian Specter'
p1206
aS'Thragtusk'
p1207
ag1168
ag1096
aS'Boundless Realms'
p1208
aS'Rhox Faithmender'
p1209
aS'Intrepid Hero'
p1210
aS'Magmaquake'
p1211
aS'Mutilate'
p1212
aS'Cathedral of War'
p1213
aS'Odric, Master Tactician'
p1214
aS'Diabolic Revelation'
p1215
ag1137
ag1049
ag1102
aS'Battle of Wits'
p1216
aS'Touch of the Eternal'
p1217
aS"Wit's End"
p1218
aS'Gilded Lotus'
p1219
aS'Staff of Nin'
p1220
atp1221
Rp1222
sS'Worldwake Promos'
p1223
g1
((lp1224
S'Joraga Warcaller'
p1225
aS'Kalastria Highborn'
p1226
aS'Hada Freeblade'
p1227
aS'Comet Storm'
p1228
ag17
atp1229
Rp1230
sS'Multiverse Gift Box'
p1231
g1
((lp1232
S'Necrosavant'
p1233
aS'Viashino Sandstalker'
p1234
aS'Vampirism'
p1235
aS'Ovinomancer'
p1236
aS'Urborg Mindsucker'
p1237
aS'Wicked Reward'
p1238
aS'Peace Talks'
p1239
aS'Dark Privilege'
p1240
aS'King Cheetah'
p1241
aS'Bull Elephant'
p1242
atp1243
Rp1244
sS'GRN Guild Kit'
p1245
g1
((lp1246
S'Tolsimir Wolfblood'
p1247
aS'Firemane Avenger'
p1248
aS'Boros Reckoner'
p1249
aS'Deathrite Shaman'
p1250
aS'Master Warcraft'
p1251
aS'Firemane Angel'
p1252
aS'Abrupt Decay'
p1253
aS'Dimir Doppelganger'
p1254
aS'Hour of Reckoning'
p1255
aS'Legion Loyalist'
p1256
aS'Spark Trooper'
p1257
aS'Loxodon Hierarch'
p1258
aS'Invoke the Firemind'
p1259
aS'Lotleth Troll'
p1260
aS'Glimpse the Unthinkable'
p1261
aS'Grove of the Guardian'
p1262
aS'Mizzium Mortars'
p1263
aS'Glare of Subdual'
p1264
aS'Razia, Boros Archangel'
p1265
aS'Cerebral Vortex'
p1266
aS'Grave-Shell Scarab'
p1267
aS'Mirko Vosk, Mind Drinker'
p1268
aS'Gaze of Granite'
p1269
aS'Growing Ranks'
p1270
aS'Djinn Illuminatus'
p1271
aS'Agrus Kos, Wojek Veteran'
p1272
ag48
aS'Stitch in Time'
p1273
aS'Niv-Mizzet, the Firemind'
p1274
aS'Advent of the Wurm'
p1275
aS'Nightveil Specter'
p1276
aS'Brightflame'
p1277
aS'Privileged Position'
p1278
aS'Stolen Identity'
p1279
aS'Szadek, Lord of Secrets'
p1280
aS'Circu, Dimir Lobotomist'
p1281
aS'Char'
p1282
aS'Hypersonic Dragon'
p1283
aS'Consuming Aberration'
p1284
aS'Tibor and Lumia'
p1285
aS'Savra, Queen of the Golgari'
p1286
aS'Deadbridge Goliath'
p1287
aS'Sisters of Stone Death'
p1288
ag83
atp1289
Rp1290
sS"Urza's Legacy"
p1291
g1
((lp1292
S'Lurking Skirge'
p1293
aS'Crawlspace'
p1294
aS'Quicksilver Amulet'
p1295
aS'Delusions of Mediocrity'
p1296
aS'Subversion'
p1297
aS'Molten Hydra'
p1298
aS"Urza's Blueprints"
p1299
aS'Ring of Gix'
p1300
aS'Weatherseed Treefolk'
p1301
aS'Palinchron'
p1302
aS'Fleeting Image'
p1303
aS'Shivan Phoenix'
p1304
aS'Damping Engine'
p1305
aS'Defense of the Heart'
p1306
aS'No Mercy'
p1307
aS'Opal Avenger'
p1308
aS'Deranged Hermit'
p1309
aS'Wheel of Torture'
p1310
aS'Thran Weaponry'
p1311
aS'Anthroplasm'
p1312
aS'Rivalry'
p1313
aS'Thran Lens'
p1314
aS'Hidden Gibbons'
p1315
aS'Radiant, Archangel'
p1316
aS'Iron Maiden'
p1317
aS'Planar Collapse'
p1318
aS'Purify'
p1319
aS'Beast of Burden'
p1320
aS'Blessed Reversal'
p1321
aS'Archivist'
p1322
aS'Grim Monolith'
p1323
aS'Brink of Madness'
p1324
aS'Defense Grid'
p1325
aS'Multani, Maro-Sorcerer'
p1326
aS'Memory Jar'
p1327
aS'Goblin Welder'
p1328
aS'Scrapheap'
p1329
aS'Impending Disaster'
p1330
aS'Might of Oaks'
p1331
aS'Second Chance'
p1332
aS'Karmic Guide'
p1333
aS'Pyromancy'
p1334
aS'Eviscerator'
p1335
aS'Phyrexian Plaguelord'
p1336
atp1337
Rp1338
sS'Judge Gift Cards 1999'
p1339
g1
((lp1340
S'Memory Lapse'
p1341
atp1342
Rp1343
sS'Theros Promos'
p1344
g1
((lp1345
S'Anthousa, Setessan Hero'
p1346
aS'Shipbreaker Kraken'
p1347
aS'Bident of Thassa'
p1348
aS'Abhorrent Overlord'
p1349
aS'Nighthowler'
p1350
aS'Celestial Archon'
p1351
aS'Sylvan Caryatid'
p1352
aS'Ember Swallower'
p1353
atp1354
Rp1355
sS'Wizards of the Coast Online Store'
p1356
g1
((lp1357
S'Serra Angel'
p1358
atp1359
Rp1360
sS'Seventh Edition'
p1361
g1
((lp1362
S'Sacred Ground'
p1363
aS'Elvish Champion'
p1364
aS'Grafted Skullcap'
p1365
aS'Elite Archers'
p1366
aS'Reckless Embermage'
p1367
aS'Stronghold Assassin'
p1368
aS'Crimson Hellkite'
p1369
aS'Mawcor'
p1370
aS'Evacuation'
p1371
aS'Infernal Contract'
p1372
aS'Goblin King'
p1373
aS'Inferno'
p1374
ag1074
aS'Equilibrium'
p1375
aS"Nature's Revolt"
p1376
aS'Southern Paladin'
p1377
aS"Feroz's Ban"
p1378
aS'Oppression'
p1379
aS'Bedlam'
p1380
aS'Master Healer'
p1381
aS'Uktabi Wildcats'
p1382
aS'Jalum Tome'
p1383
aS'Jayemdae Tome'
p1384
aS'Adarkar Wastes'
p1385
ag712
aS'Opposition'
p1386
aS'Relentless Assault'
p1387
aS'Okk'
p1388
ag1082
aS'Ensnaring Bridge'
p1389
aS'Vizzerdrix'
p1390
ag1068
aS'Final Fortune'
p1391
aS'Beast of Burden'
p1392
aS'Revenant'
p1393
aS'Purify'
p1394
aS'Tainted Aether'
p1395
aS'Storm Cauldron'
p1396
aS'Trained Orgg'
p1397
ag541
aS"Nature's Resurgence"
p1398
aS'Ancient Silverback'
p1399
aS'Rag Man'
p1400
aS'Brushland'
p1401
aS'Kjeldoran Royal Guard'
p1402
ag142
aS'Static Orb'
p1403
ag1099
aS'Early Harvest'
p1404
aS'Reverse Damage'
p1405
aS'Daring Apprentice'
p1406
aS'Pariah'
p1407
aS'Millstone'
p1408
aS'Vernal Bloom'
p1409
aS'Dregs of Sorrow'
p1410
ag1358
aS'Dingus Egg'
p1411
aS'Persecute'
p1412
aS'Wildfire'
p1413
aS'Meekstone'
p1414
ag89
aS'Western Paladin'
p1415
aS'Impatience'
p1416
aS'Rolling Stones'
p1417
ag956
aS"Jandor's Saddlebags"
p1418
aS'Hurricane'
p1419
aS'Archivist'
p1420
aS'Delusions of Mediocrity'
p1421
aS'Fallen Angel'
p1422
aS'Verduran Enchantress'
p1423
ag1192
ag509
aS'Rowen'
p1424
ag1073
aS'Underground River'
p1425
aS'Fleeting Image'
p1426
aS'Elder Druid'
p1427
aS'Mana Short'
p1428
aS'Elvish Archers'
p1429
aS'Temporal Adept'
p1430
aS"Aladdin's Ring"
p1431
aS'Glorious Anthem'
p1432
ag1079
aS'Benthic Behemoth'
p1433
aS'Darkest Hour'
p1434
aS'Abyssal Horror'
p1435
aS'Sunweb'
p1436
aS'Wrath of God'
p1437
aS'Maro'
p1438
aS'Sulfurous Springs'
p1439
aS'Karplusan Forest'
p1440
aS'Wall of Wonder'
p1441
aS'Mana Clash'
p1442
ag529
aS'Disrupting Scepter'
p1443
aS'Blessed Reversal'
p1444
ag1210
aS'Thorn Elemental'
p1445
aS'Greed'
p1446
aS'Bellowing Fiend'
p1447
aS'Northern Paladin'
p1448
aS'Eastern Paladin'
p1449
aS'Flying Carpet'
p1450
aS'Bloodshot Cyclops'
p1451
aS'Deflection'
p1452
aS"Teferi's Puzzle Box"
p1453
aS'Ancestral Memories'
p1454
aS'Seismic Assault'
p1455
aS'Worship'
p1456
atp1457
Rp1458
sS'Return to Ravnica Promos'
p1459
g1
((lp1460
S'Supreme Verdict'
p1461
aS'Archon of the Triumvirate'
p1462
ag1262
ag1283
aS'Corpsejack Menace'
p1463
aS'Carnival Hellsteed'
p1464
aS'Dreg Mangler'
p1465
ag1287
aS'Cryptborn Horror'
p1466
atp1467
Rp1468
sS'From the Vault: Dragons'
p1469
g1
((lp1470
S'Two-Headed Dragon'
p1471
ag754
aS'Kokusho, the Evening Star'
p1472
ag148
aS'Hellkite Overlord'
p1473
ag529
aS'Form of the Dragon'
p1474
ag485
ag1274
ag487
aS'Bogardan Hellkite'
p1475
ag772
aS'Bladewing the Risen'
p1476
ag784
aS'Draco'
p1477
atp1478
Rp1479
sS'Chronicles'
p1480
g1
((lp1481
g939
ag945
ag934
ag932
atp1482
Rp1483
sS'Zendikar'
p1484
g1
((lp1485
S'Gigantiform'
p1486
aS'Grappling Hook'
p1487
aS'Electropotence'
p1488
aS'Emeria, the Sky Ruin'
p1489
ag275
aS'Emeria Angel'
p1490
aS'Elemental Appeal'
p1491
aS'Hellkite Charger'
p1492
aS'Halo Hunter'
p1493
aS'Guul Draz Specter'
p1494
atp1495
Rp1496
sS'Apocalypse'
p1497
g1
((lp1498
S'Guided Passage'
p1499
aS'False Dawn'
p1500
aS'Fervent Charge'
p1501
ag149
aS'Fungal Shambler'
p1502
aS'Goblin Trenches'
p1503
atp1504
Rp1505
sS'Two-Headed Giant Tournament'
p1506
g1
((lp1507
g1089
atp1508
Rp1509
sS'Dragons of Tarkir'
p1510
g1
((lp1511
g623
aS'Dragon Tempest'
p1512
ag624
ag625
ag626
ag627
ag628
ag629
ag630
ag631
ag632
ag633
ag634
ag635
aS'Collected Company'
p1513
aS'Secure the Wastes'
p1514
ag637
aS'Corpseweft'
p1515
ag638
aS'Profound Journey'
p1516
aS'Assault Formation'
p1517
ag639
ag640
aS"Hedonist's Trove"
p1518
aS'Mirror Mockery'
p1519
ag641
aS'Illusory Gains'
p1520
ag642
ag647
ag643
ag644
ag656
ag646
aS"Berserkers' Onslaught"
p1521
aS"Dragonlord's Prerogative"
p1522
ag648
aS'Haven of the Spirit Dragon'
p1523
ag649
aS'Commune with Lava'
p1524
aS'Obscuring Aether'
p1525
ag650
aS"Sunbringer's Touch"
p1526
ag651
ag652
ag653
ag654
ag655
aS'Foul Renewal'
p1527
aS'Gleam of Authority'
p1528
aS'Radiant Purge'
p1529
ag657
ag636
ag658
atp1530
Rp1531
sS'Classic Sixth Edition'
p1532
g1
((lp1533
S'Archangel'
p1534
aS'Library of Lat-Nam'
p1535
aS'Polymorph'
p1536
aS'Flash'
p1537
aS'Howling Mine'
p1538
aS'Grinning Totem'
p1539
aS'Order of the Sacred Torch'
p1540
aS'Crimson Hellkite'
p1541
aS'Wyluli Wolf'
p1542
ag890
aS'Infernal Contract'
p1543
aS'Goblin King'
p1544
aS'Inferno'
p1545
aS"Aladdin's Ring"
p1546
aS'Amber Prison'
p1547
aS'Dragon Engine'
p1548
aS'Cursed Totem'
p1549
aS'Uktabi Wildcats'
p1550
aS'Jalum Tome'
p1551
aS'Jayemdae Tome'
p1552
aS'Adarkar Wastes'
p1553
aS'Lord of Atlantis'
p1554
aS'Illicit Auction'
p1555
aS'Final Fortune'
p1556
aS'Relentless Assault'
p1557
aS'Earthquake'
p1558
aS'Jade Monolith'
p1559
aS'Meekstone'
p1560
aS'Early Harvest'
p1561
aS'Pentagram of the Ages'
p1562
aS'Manabarbs'
p1563
aS'Storm Cauldron'
p1564
aS'The Hive'
p1565
aS'Desertion'
p1566
aS'Serenity'
p1567
aS"Nature's Resurgence"
p1568
aS'Reckless Embermage'
p1569
aS'Rag Man'
p1570
aS'Brushland'
p1571
aS'Kjeldoran Royal Guard'
p1572
aS'Psychic Transfer'
p1573
aS'Wand of Denial'
p1574
aS'Forget'
p1575
aS'Sibilant Spirit'
p1576
aS'Reverse Damage'
p1577
aS'Daring Apprentice'
p1578
aS'Dancing Scimitar'
p1579
aS'Diminishing Returns'
p1580
aS'Tranquil Grove'
p1581
aS'Celestial Dawn'
p1582
aS"Teferi's Puzzle Box"
p1583
aS'Millstone'
p1584
aS'Call of the Wild'
p1585
aS'Exile'
p1586
aS'Ethereal Champion'
p1587
aS'Dingus Egg'
p1588
aS'Sengir Autocrat'
p1589
ag1233
aS'Balduvian Horde'
p1590
aS"Zur's Weirding"
p1591
aS'Nightmare'
p1592
aS'Maro'
p1593
aS'Hurricane'
p1594
aS'Doomsday'
p1595
aS'Fallen Angel'
p1596
aS'Verduran Enchantress'
p1597
aS'Fervor'
p1598
aS'Goblin Warrens'
p1599
aS'Rowen'
p1600
aS'Zombie Master'
p1601
aS'Shatterstorm'
p1602
aS'Animate Wall'
p1603
aS'Underground River'
p1604
ag892
aS'Juxtapose'
p1605
aS'Mana Short'
p1606
aS'Elvish Archers'
p1607
aS'Ashen Powder'
p1608
aS'Dense Foliage'
p1609
aS'Icatian Town'
p1610
aS'Crusade'
p1611
aS'Bottle of Suleiman'
p1612
aS'Derelor'
p1613
aS'Birds of Paradise'
p1614
aS'Forbidden Crypt'
p1615
aS'Tariff'
p1616
aS'Sunweb'
p1617
aS'Wrath of God'
p1618
aS'Snake Basket'
p1619
aS'Sulfurous Springs'
p1620
aS'Karplusan Forest'
p1621
aS'Vampiric Tutor'
p1622
aS'Recall'
p1623
aS'Jokulhaups'
p1624
aS'Ankh of Mishra'
p1625
aS'Disrupting Scepter'
p1626
aS'Hammer of Bogardan'
p1627
aS'Stromgald Cabal'
p1628
aS'Waiting in the Weeds'
p1629
ag942
aS'Pearl Dragon'
p1630
aS'Flying Carpet'
p1631
aS'City of Brass'
p1632
aS'Deflection'
p1633
aS'Primal Clay'
p1634
aS'Abyssal Hunter'
p1635
aS'Ancestral Memories'
p1636
aS'Armageddon'
p1637
aS'Volcanic Dragon'
p1638
aS'Living Lands'
p1639
atp1640
Rp1641
sS'Junior APAC Series'
p1642
g1
((lp1643
g1432
aS'Shard Phoenix'
p1644
ag1364
aS'Sakura-Tribe Elder'
p1645
ag746
ag804
atp1646
Rp1647
sS'Torment'
p1648
g1
((lp1649
S'Hell-Bent Raider'
p1650
aS'False Memories'
p1651
ag1156
aS'Gurzigost'
p1652
atp1653
Rp1654
sS"Dragon's Maze"
p1655
g1
((lp1656
S'Boros Battleshaper'
p1657
aS'Renounce the Guilds'
p1658
aS'Possibility Storm'
p1659
aS'Ruric Thar, the Unbowed'
p1660
aS'Render Silent'
p1661
aS'Ready '
p1662
aS'Flesh // Blood'
p1663
aS'Blood Scrivener'
p1664
aS'Plasm Capture'
p1665
aS'Lavinia of the Tenth'
p1666
aS'Pyrewild Shaman'
p1667
aS'Aetherling'
p1668
aS'Teysa, Envoy of Ghosts'
p1669
aS'Tajic, Blade of the Legion'
p1670
ag1275
aS'Scion of Vitu-Ghazi'
p1671
aS'Trait Doctoring'
p1672
ag1268
ag1269
aS"Obzedat's Aid"
p1673
aS'Varolz, the Scar-Striped'
p1674
aS'Emmara Tandris'
p1675
aS'Zhur-Taa Ancient'
p1676
aS'Notion Thief'
p1677
aS'Pontiff of Blight'
p1678
aS'Skylasher'
p1679
aS'Melek, Izzet Paragon'
p1680
aS'Beck // Call'
p1681
aS'Exava, Rakdos Blood Witch'
p1682
aS'Breaking // Entering'
p1683
aS'Dragonshift'
p1684
aS'Sire of Insanity'
p1685
aS'Renegade Krasis'
p1686
aS'Ready // Willing'
p1687
aS'Catch // Release'
p1688
aS'Vorel of the Hull Clade'
p1689
atp1690
Rp1691
sS'Summer Magic / Edgar'
p1692
g1
((lp1693
S'Web'
p1694
aS'Stasis'
p1695
aS'Sleight of Mind'
p1696
aS'Drain Power'
p1697
aS'Volcanic Eruption'
p1698
aS'Farmstead'
p1699
ag1538
ag1565
aS'Bayou'
p1700
aS'Cockatrice'
p1701
aS'Plateau'
p1702
aS'Darkpact'
p1703
ag1544
aS"Jandor's Ring"
p1704
ag1546
aS'Timber Wolves'
p1705
aS'Savannah Lions'
p1706
aS'Rock Hydra'
p1707
aS'Righteousness'
p1708
aS'Lifelace'
p1709
aS'Aspect of Wolf'
p1710
aS'Sorceress Queen'
p1711
aS'El-Hajj\xc3\xa2j'
p1712
ag1552
aS'Magnetic Mountain'
p1713
ag1614
ag1554
aS'Onulet'
p1714
ag1548
aS'Island Fish Jasconius'
p1715
ag1558
aS'Magical Hack'
p1716
ag1560
aS'Eye for an Eye'
p1717
ag1597
aS'Badlands'
p1718
aS"Titania's Song"
p1719
aS'Tropical Island'
p1720
aS'Living Artifact'
p1721
ag1563
aS'Clockwork Beast'
p1722
aS'Chaoslace'
p1723
aS'Fastbond'
p1724
aS'Force of Nature'
p1725
aS'Wheel of Fortune'
p1726
aS'Serendib Efreet'
p1727
ag1634
aS'Balance'
p1728
aS'Volcanic Island'
p1729
aS'Granite Gargoyle'
p1730
aS'Savannah'
p1731
aS'Fungusaur'
p1732
ag1577
ag1579
ag1611
aS'Taiga'
p1733
ag1584
aS'Royal Assassin'
p1734
aS'Thoughtlace'
p1735
aS'Personal Incarnation'
p1736
ag1601
aS'Sunglasses of Urza'
p1737
ag1588
aS'Mana Flare'
p1738
ag1607
ag1631
aS'Bad Moon'
p1739
aS'Power Surge'
p1740
ag1592
aS"Jandor's Saddlebags"
p1741
aS'Warp Artifact'
p1742
aS'Ebony Horse'
p1743
aS'Ivory Tower'
p1744
aS'Mijae Djinn'
p1745
aS'Mahamoti Djinn'
p1746
aS'Roc of Kher Ridges'
p1747
ag1603
aS'Northern Paladin'
p1748
aS'Fork'
p1749
aS'Mind Twist'
p1750
aS'Winter Orb'
p1751
aS"Hurkyl's Recall"
p1752
ag1606
aS'Purelace'
p1753
aS'Underground Sea'
p1754
aS'Blessing'
p1755
aS"Gaea's Liege"
p1756
aS'Tundra'
p1757
ag1612
ag1559
aS"Nevinyrral's Disk"
p1758
aS'Sedge Troll'
p1759
aS'Deathlace'
p1760
aS'Veteran Bodyguard'
p1761
aS'Copy Artifact'
p1762
aS'Nether Shadow'
p1763
ag1618
aS'Armageddon Clock'
p1764
aS'Pirate Ship'
p1765
ag1625
aS'Braingeyser'
p1766
aS'Shivan Dragon'
p1767
ag1626
aS'Kormus Bell'
p1768
aS'Smoke'
p1769
aS'Contract from Below'
p1770
aS'Rocket Launcher'
p1771
aS'Lord of the Pit'
p1772
aS'Helm of Chatzuk'
p1773
aS'Island Sanctuary'
p1774
aS'Kudzu'
p1775
aS"Will-o'-the-Wisp"
p1776
aS"Aladdin's Lamp"
p1777
aS'Mana Vault'
p1778
aS'Demonic Attorney'
p1779
aS'Vesuvan Doppelganger'
p1780
aS'Scrubland'
p1781
aS'Demonic Hordes'
p1782
aS"Mishra's War Machine"
p1783
ag1637
ag1639
atp1784
Rp1785
sS'Tenth Edition Promos'
p1786
g1
((lp1787
S'Reya Dawnbringer'
p1788
atp1789
Rp1790
sS'Summer of Magic'
p1791
g1
((lp1792
S'Faerie Conclave'
p1793
atp1794
Rp1795
sS'Premium Deck Series: Graveborn'
p1796
g1
((lp1797
S'Blazing Archon'
p1798
aS'Crosis, the Purger'
p1799
ag261
aS'Terastodon'
p1800
aS'Verdant Force'
p1801
ag16
aS'Inkwell Leviathan'
p1802
atp1803
Rp1804
sS'Guilds of Ravnica Promos'
p1805
g1
((lp1806
g29
ag30
ag32
ag33
ag56
ag35
ag37
ag38
ag40
ag66
ag45
ag47
ag48
ag72
ag52
ag77
ag55
ag31
ag43
ag59
ag42
ag63
ag64
ag68
ag58
ag73
ag71
ag70
ag76
aS'Response '
p1807
ag78
ag82
ag80
ag81
ag34
ag83
atp1808
Rp1809
sS'Antiquities'
p1810
g1
((lp1811
S'Clockwork Avian'
p1812
aS"Tawnos's Coffin"
p1813
aS'Candelabra of Tawnos'
p1814
aS'Colossus of Sardia'
p1815
aS"Mishra's Workshop"
p1816
ag1752
aS'Bronze Tablet'
p1817
aS'Argivian Archaeologist'
p1818
ag1602
aS'Coral Helm'
p1819
aS'Golgothian Sylex'
p1820
aS"Gaea's Avenger"
p1821
aS'Yawgmoth Demon'
p1822
aS'Shapeshifter'
p1823
aS'Strip Mine'
p1824
aS'Tetravus'
p1825
aS"Urza's Avenger"
p1826
aS'Triskelion'
p1827
aS"Mishra's Factory"
p1828
aS'Obelisk of Undoing'
p1829
ag1783
aS"Urza's Miter"
p1830
atp1831
Rp1832
sS'Conflux'
p1833
g1
((lp1834
S'Martial Coup'
p1835
aS"Soul's Majesty"
p1836
aS'Paleoloth'
p1837
aS'Gwafa Hazid, Profiteer'
p1838
aS'Mark of Asylum'
p1839
aS'Voracious Dragon'
p1840
aS'Scepter of Dominance'
p1841
aS'Bloodhall Ooze'
p1842
aS'Cliffrunner Behemoth'
p1843
aS'Blood Tyrant'
p1844
aS'Obelisk of Alara'
p1845
aS'Master Transmuter'
p1846
aS'Magister Sphinx'
p1847
ag7
aS'Knight of the Reliquary'
p1848
aS'Scepter of Fugue'
p1849
aS'Extractor Demon'
p1850
aS'Sigil of the Empty Throne'
p1851
aS'Cylian Sunsinger'
p1852
aS'Kederekt Parasite'
p1853
aS'Telemin Performance'
p1854
aS'Banefire'
p1855
aS'Font of Mythos'
p1856
aS'Worldheart Phoenix'
p1857
ag1802
aS'Exotic Orchard'
p1858
aS'Giltspire Avenger'
p1859
aS'Rakka Mar'
p1860
aS'Meglonoth'
p1861
aS'Nyxathid'
p1862
aS'Scepter of Insight'
p1863
aS'Sphinx Summoner'
p1864
aS'Goblin Razerunners'
p1865
aS'Charnelhoard Wurm'
p1866
aS'Wall of Reverence'
p1867
atp1868
Rp1869
sS'Return to Ravnica'
p1870
g1
((lp1871
g1262
aS'Guild Feud'
p1872
ag1270
aS"Firemind's Foresight"
p1873
ag443
aS'Havoc Festival'
p1874
aS'Grave Betrayal'
p1875
atp1876
Rp1877
sS'Prophecy'
p1878
g1
((lp1879
S'Forgotten Harvest'
p1880
aS'Fickle Efreet'
p1881
aS'Dual Nature'
p1882
aS'Greel, Mind Raker'
p1883
aS'Elephant Resurgence'
p1884
aS'Heightened Awareness'
p1885
atp1886
Rp1887
sS"Ugin's Fate"
p1888
g1
((lp1889
S'Jeering Instigator'
p1890
ag557
aS'Altar of the Brood'
p1891
ag571
ag572
aS'Ghostfire Blade'
p1892
aS'Grim Haruspex'
p1893
atp1894
Rp1895
sS'Future Sight'
p1896
g1
((lp1897
S'Heartwood Storyteller'
p1898
aS'Force of Savagery'
p1899
aS'Gibbering Descent'
p1900
aS'Horizon Canopy'
p1901
aS'Grove of the Burnwillows'
p1902
aS'Epochrasite'
p1903
ag126
aS'Glittering Wish'
p1904
atp1905
Rp1906
sS'Archenemy: Nicol Bolas'
p1907
g1
((lp1908
S'Cruel Ultimatum'
p1909
aS'Dreadbore'
p1910
aS'Mentor of the Meek'
p1911
aS'Forgotten Ancient'
p1912
ag1156
ag1078
ag636
ag568
ag296
aS'Oran-Rief Hydra'
p1913
ag1844
ag979
aS'Overseer of the Damned'
p1914
aS'Sudden Demise'
p1915
aS'Precinct Captain'
p1916
aS'Harvester of Souls'
p1917
ag656
aS'Prognostic Sphinx'
p1918
ag1207
aS'Torchling'
p1919
ag345
aS'Sword of the Animist'
p1920
ag1175
ag1096
aS'Avatar of Fury'
p1921
ag1097
ag1214
aS'Dualcaster Mage'
p1922
aS'Sphinx of Jwar Isle'
p1923
ag1020
aS"Hunter's Prowess"
p1924
atp1925
Rp1926
sS'Zendikar Promos'
p1927
g1
((lp1928
S"Nissa's Chosen"
p1929
aS'Rampaging Baloths'
p1930
ag1490
ag1133
aS'Valakut, the Molten Pinnacle'
p1931
atp1932
Rp1933
sS'Modern Masters'
p1934
g1
((lp1935
S'Doubling Season'
p1936
ag19
aS'Tooth and Nail'
p1937
ag541
aS'Bridge from Below'
p1938
aS'Glen Elendra Archmage'
p1939
aS'Slaughter Pact'
p1940
aS'Demigod of Revenge'
p1941
aS"Kataki, War's Wage"
p1942
ag772
aS'Oona, Queen of the Fae'
p1943
aS'Earwig Squad'
p1944
ag20
aS'Kira, Great Glass-Spinner'
p1945
aS'Glimmervoid'
p1946
ag10
aS'Cold-Eyed Selkie'
p1947
aS'Figure of Destiny'
p1948
ag1848
aS'Lotus Bloom'
p1949
aS'Chalice of the Void'
p1950
aS'Aether Vial'
p1951
aS'Scion of Oona'
p1952
aS"Angel's Grace"
p1953
aS'Jhoira of the Ghitu'
p1954
aS'Death Cloud'
p1955
ag440
aS'Meloku the Clouded Mirror'
p1956
aS'Tombstalker'
p1957
aS'Molten Disaster'
p1958
aS'Arcbound Ravager'
p1959
aS'Greater Gargadon'
p1960
aS'Divinity of Pride'
p1961
ag743
ag99
ag266
aS'Countryside Crusher'
p1962
aS'Woodfall Primus'
p1963
aS"Pyromancer's Swath"
p1964
aS'Auriok Salvagers'
p1965
aS'Squee, Goblin Nabob'
p1966
aS'Reveillark'
p1967
aS'Cryptic Command'
p1968
aS'Blood Moon'
p1969
aS'Adarkar Valkyrie'
p1970
aS'Extirpate'
p1971
aS'Stonehewer Giant'
p1972
ag290
aS'Skeletal Vampire'
p1973
aS'Pact of Negation'
p1974
aS"Summoner's Pact"
p1975
aS'Academy Ruins'
p1976
aS'Rude Awakening'
p1977
atp1978
Rp1979
sS'Magic 2011 Promos'
p1980
g1
((lp1981
g1125
ag1079
ag97
atp1982
Rp1983
sS'Junior Series Europe'
p1984
g1
((lp1985
S'Slith Firewalker'
p1986
ag1364
ag1645
ag1432
ag1644
ag1104
ag746
ag804
atp1987
Rp1988
sS'Hachette UK'
p1989
g1
((lp1990
S'Larceny'
p1991
ag1372
aS'Patron of the Nezumi'
p1992
ag158
aS'Marrow-Gnawer'
p1993
atp1994
Rp1995
sS'Junior Super Series'
p1996
g1
((lp1997
g1471
aS'Serra Avatar'
p1998
ag1364
aS'Volcanic Hammer'
p1999
aS'Thran Quarry'
p2000
ag1645
ag541
ag1644
aS'Elvish Lyrist'
p2001
aS'Giant Growth'
p2002
ag804
ag1986
aS'Crusade'
p2003
ag1432
ag712
ag1104
aS'Mad Auntie'
p2004
ag746
atp2005
Rp2006
sS"Commander's Arsenal"
p2007
g1
((lp2008
S'Decree of Pain'
p2009
aS'Chaos Warp'
p2010
aS'Dragonlair Spider'
p2011
aS'Sylvan Library'
p2012
ag93
aS'Scroll Rack'
p2013
aS'Desertion'
p2014
ag681
aS"Mind's Eye"
p2015
aS'Diaochan, Artful Beauty'
p2016
ag278
atp2017
Rp2018
sS'World Magic Cup Qualifiers'
p2019
g1
((lp2020
S'Thalia, Guardian of Thraben'
p2021
aS'Vengevine'
p2022
aS'Inkmoth Nexus'
p2023
ag1253
aS'Geist of Saint Traft'
p2024
atp2025
Rp2026
sS'Magic 2014 Promos'
p2027
g1
((lp2028
g955
ag970
ag994
ag974
atp2029
Rp2030
sS'Homelands'
p2031
g1
((lp2032
S'Reveka, Wizard Savant'
p2033
aS'Didgeridoo'
p2034
aS'Winter Sky'
p2035
aS'Serra Aviary'
p2036
aS'Willow Priestess'
p2037
aS'Rysorian Badger'
p2038
aS'Aysen Highway'
p2039
aS'Broken Visage'
p2040
aS'Marjhan'
p2041
aS'Apocalypse Chime'
p2042
aS'Dwarven Pony'
p2043
aS"Feroz's Ban"
p2044
aS'Daughter of Autumn'
p2045
aS'Leeches'
p2046
aS'Black Carriage'
p2047
aS'Grandmother Sengir'
p2048
aS'Chain Stasis'
p2049
aS'Koskun Falls'
p2050
aS'Mammoth Harness'
p2051
aS'An-Zerrin Ruins'
p2052
aS'Anaba Spirit Crafter'
p2053
aS'Beast Walkers'
p2054
aS'Dwarven Sea Clan'
p2055
aS'Heart Wolf'
p2056
aS'Baron Sengir'
p2057
aS'Timmerian Fiends'
p2058
aS"Baki's Curse"
p2059
aS'Anaba Ancestor'
p2060
aS'Truce'
p2061
aS'Narwhal'
p2062
aS'Hazduhr the Abbot'
p2063
aS'Soraya the Falconer'
p2064
aS'Faerie Noble'
p2065
ag1575
aS'Autumn Willow'
p2066
aS'Veldrane of Sengir'
p2067
aS'Wall of Kelp'
p2068
aS'Ironclaw Curse'
p2069
aS'An-Havva Constable'
p2070
aS'Mystic Decree'
p2071
aS'Aysen Crusader'
p2072
aS'Primal Order'
p2073
atp2074
Rp2075
sS'Friday Night Magic 2015'
p2076
g1
((lp2077
S'Disdainful Stroke'
p2078
aS'Frenzied Goblin'
p2079
aS'Abzan Beastmaster'
p2080
aS'Anticipate'
p2081
aS'Ultimate Price'
p2082
aS'Orator of Ojutai'
p2083
aS'Serum Visions'
p2084
aS'Roast'
p2085
aS'Suspension Field'
p2086
aS'Frost Walker'
p2087
aS'Path to Exile'
p2088
aS'Hordeling Outburst'
p2089
atp2090
Rp2091
sS'Friday Night Magic 2016'
p2092
g1
((lp2093
S'Spatial Contortion'
p2094
aS'Crumbling Vestige'
p2095
aS'Sylvan Scrying'
p2096
aS'Blighted Fen'
p2097
aS'Smash to Smithereens'
p2098
ag782
aS'Goblin Warchief'
p2099
aS'Call the Bloodline'
p2100
aS'Flaying Tendrils'
p2101
aS'Rise from the Tides'
p2102
aS"Nissa's Pilgrimage"
p2103
aS'Clash of Wills'
p2104
atp2105
Rp2106
sS'Friday Night Magic 2017'
p2107
g1
((lp2108
S'Reverse Engineer'
p2109
aS'Servo Exhibition'
p2110
aS"Fortune's Favor"
p2111
aS'Unlicensed Disintegration'
p2112
aS'Renegade Rallier'
p2113
aS'Noose Constrictor'
p2114
aS'Fatal Push'
p2115
aS'Aether Hub'
p2116
aS'Incendiary Flow'
p2117
atp2118
Rp2119
sS'Friday Night Magic 2010'
p2120
g1
((lp2121
S'Wild Nacatl'
p2122
aS'Rift Bolt'
p2123
aS'Qasali Pridemage'
p2124
aS'Gatekeeper of Malakir'
p2125
aS'Elvish Visionary'
p2126
aS'Anathemancer'
p2127
aS'Ancient Ziggurat'
p2128
aS'Krosan Grip'
p2129
aS'Cloudpost'
p2130
aS'Ghostly Prison'
p2131
aS'Tidehollow Sculler'
p2132
aS'Bloodbraid Elf'
p2133
atp2134
Rp2135
sS'Friday Night Magic 2011'
p2136
g1
((lp2137
S'Artisan of Kozilek'
p2138
aS'Teetering Peaks'
p2139
aS'Rhox War Monk'
p2140
aS'Squadron Hawk'
p2141
aS'Everflowing Chalice'
p2142
aS'Go for the Throat'
p2143
aS'Contagion Clasp'
p2144
aS'Spellstutter Sprite'
p2145
aS'Cultivate'
p2146
aS'Savage Lands'
p2147
aS'Wall of Omens'
p2148
aS"Jace's Ingenuity"
p2149
atp2150
Rp2151
sS'Friday Night Magic 2012'
p2152
g1
((lp2153
S'Glistener Elf'
p2154
aS'Despise'
p2155
aS'Acidic Slime'
p2156
aS"Avacyn's Pilgrim"
p2157
aS'Tectonic Edge'
p2158
aS'Forbidden Alchemy'
p2159
aS'Pillar of Flame'
p2160
aS'Ancient Grudge'
p2161
aS'Dismember'
p2162
aS'Lingering Souls'
p2163
aS'Gitaxian Probe'
p2164
aS'Evolving Wilds'
p2165
atp2166
Rp2167
sS'Friday Night Magic 2013'
p2168
g1
((lp2169
S'Call of the Conclave'
p2170
aS'Izzet Charm'
p2171
aS'Reliquary Tower'
p2172
aS'Experiment One'
p2173
aS'Dimir Charm'
p2174
aS"Judge's Familiar"
p2175
aS'Ghor-Clan Rampager'
p2176
aS'Sin Collector'
p2177
aS'Searing Spear'
p2178
aS'Farseek'
p2179
aS'Rakdos Cackler'
p2180
aS'Grisly Salvage'
p2181
atp2182
Rp2183
sS'Battlebond Promos'
p2184
g1
((lp2185
S'Regna, the Redeemer'
p2186
aS'Khorvath Brightflame'
p2187
aS'Sylvia Brightspear'
p2188
aS'Toothy, Imaginary Friend'
p2189
aS'Gorm the Great'
p2190
aS'Krav, the Unredeemed'
p2191
aS'Virtus the Veiled'
p2192
aS'Okaun, Eye of Chaos'
p2193
aS'Pir, Imaginative Rascal'
p2194
aS'Zndrsplt, Eye of Wisdom'
p2195
atp2196
Rp2197
sS'Rivals of Ixalan Promos'
p2198
g1
((lp2199
S'Nezahal, Primal Tide'
p2200
aS'Dire Fleet Poisoner'
p2201
aS'Tomb Robber'
p2202
aS'Etali, Primal Storm'
p2203
aS'Protean Raider'
p2204
aS"Mastermind's Acquisition"
p2205
aS"Tilonalli's Summoner"
p2206
aS'Tendershoot Dryad'
p2207
aS'Blood Sun'
p2208
aS'Form of the Dinosaur'
p2209
aS'Zetalpa, Primal Dawn'
p2210
aS"Dead Man's Chest"
p2211
aS'Radiant Destiny'
p2212
aS'Arch of Orazca'
p2213
aS'Golden Guardian // Gold-Forge Garrison'
p2214
aS'Storm the Vault // Vault of Catlacan'
p2215
aS'Seafloor Oracle'
p2216
aS'Paladin of Atonement'
p2217
aS'Crafty Cutpurse'
p2218
aS'Awakened Amalgam'
p2219
aS"Captain's Hook"
p2220
aS"Kumena's Awakening"
p2221
aS'Path of Mettle // Metzali, Tower of Triumph'
p2222
aS'Jadelight Ranger'
p2223
aS"Hadana's Climb // Winged Temple of Orazca"
p2224
aS"Sphinx's Decree"
p2225
aS'Tetzimoc, Primal Death'
p2226
aS'Ghalta, Primal Hunger'
p2227
aS'Siegehorn Ceratops'
p2228
aS'Bishop of Binding'
p2229
aS'Slaughter the Strong'
p2230
aS'Deeproot Elite'
p2231
aS'Silverclad Ferocidons'
p2232
aS'Release to the Wind'
p2233
aS'Temple Altisaur'
p2234
aS'Journey to Eternity // Atzal, Cave of Eternity'
p2235
aS"Admiral's Order"
p2236
aS'Induced Amnesia'
p2237
aS'Warkite Marauder'
p2238
aS'Profane Procession // Tomb of the Dusk Rose'
p2239
aS"Brass's Bounty"
p2240
aS'Silent Gravestone'
p2241
aS'Path of Discovery'
p2242
aS"Vona's Hunger"
p2243
aS'Champion of Dusk'
p2244
aS'Wayward Swordtooth'
p2245
aS'Dire Fleet Daredevil'
p2246
aS'World Shaper'
p2247
atp2248
Rp2249
sS'Magic Origins'
p2250
g1
((lp2251
g591
aS'Herald of the Pantheon'
p2252
ag601
ag610
aS'Flameshadow Conjuring'
p2253
aS'Hangarback Walker'
p2254
ag584
ag594
ag613
ag585
aS'Helm of the Gods'
p2255
ag607
ag615
ag586
aS'Hallowed Moonlight'
p2256
ag588
ag589
atp2257
Rp2258
sS'Battlebond'
p2259
g1
((lp2260
S'Sentinel Tower'
p2261
aS'Angelic Chorus'
p2262
ag2187
ag2190
ag1838
aS'Diabolic Intent'
p2263
aS'Thrilling Encore'
p2264
ag1862
aS"Regna's Sanction"
p2265
aS"Khorvath's Fury"
p2266
aS'Mindblade Render'
p2267
ag2188
aS"Pir's Whim"
p2268
aS'Evil Twin'
p2269
aS'Sea of Clouds'
p2270
aS'Vigor'
p2271
aS"Virtus's Maneuver"
p2272
aS'Game Plan'
p2273
aS'Tidespout Tyrant'
p2274
aS'Spire Garden'
p2275
ag2189
aS"Archon of Valor's Reach"
p2276
aS'Bonus Round'
p2277
aS'Greater Good'
p2278
ag2015
aS'Magus of the Candelabra'
p2279
aS'Bountiful Promenade'
p2280
aS'Generous Patron'
p2281
aS"War's Toll"
p2282
ag258
aS'Apocalypse Hydra'
p2283
aS'Together Forever'
p2284
aS'Magmatic Force'
p2285
ag2191
ag2194
aS'Noosegraf Mob'
p2286
aS'Spellseeker'
p2287
aS'Morphic Pool'
p2288
aS'Kor Spiritdancer'
p2289
aS'Luxury Suite'
p2290
ag2186
aS'Play of the Game'
p2291
aS'Stolen Strategy'
p2292
aS'Mystic Confluence'
p2293
aS'Sower of Temptation'
p2294
aS'Seedborn Muse'
p2295
aS'Victory Chimes'
p2296
aS"Zndrsplt's Judgment"
p2297
aS'Last One Standing'
p2298
ag2193
ag1865
ag2192
ag2195
atp2299
Rp2300
sS'Judge Gift Cards 2007'
p2301
g1
((lp2302
S"Yawgmoth's Will"
p2303
aS'Vindicate'
p2304
aS'Ravenous Baloth'
p2305
aS'Cunning Wish'
p2306
ag260
atp2307
Rp2308
sS'Judge Gift Cards 2006'
p2309
g1
((lp2310
g1156
aS'Meddling Mage'
p2311
aS'Pernicious Deed'
p2312
aS'Exalted Angel'
p2313
atp2314
Rp2315
sS'Judge Gift Cards 2005'
p2316
g1
((lp2317
S"Mishra's Factory"
p2318
ag780
ag531
ag455
atp2319
Rp2320
sS'Judge Gift Cards 2004'
p2321
g1
((lp2322
S'Phyrexian Negator'
p2323
aS'Deranged Hermit'
p2324
aS'Hermit Druid'
p2325
ag548
ag488
aS'Time Warp'
p2326
atp2327
Rp2328
sS'Judge Gift Cards 2003'
p2329
g1
((lp2330
S'Intuition'
p2331
ag147
aS'Argothian Enchantress'
p2332
atp2333
Rp2334
sS'Judge Gift Cards 2002'
p2335
g1
((lp2336
S'Tradewind Rider'
p2337
aS'Hammer of Bogardan'
p2338
atp2339
Rp2340
sS'Judge Gift Cards 2001'
p2341
g1
((lp2342
S'Oath of Druids'
p2343
ag1091
atp2344
Rp2345
sS'Judge Gift Cards 2000'
p2346
g1
((lp2347
g287
aS'Vampiric Tutor'
p2348
atp2349
Rp2350
sS'Judge Gift Cards 2009'
p2351
g1
((lp2352
S'Bloodstained Mire'
p2353
aS'Polluted Delta'
p2354
aS'Survival of the Fittest'
p2355
aS'Wooded Foothills'
p2356
aS'Dark Ritual'
p2357
aS'Flooded Strand'
p2358
ag519
aS'Windswept Heath'
p2359
aS'Burning Wish'
p2360
aS'Stifle'
p2361
atp2362
Rp2363
sS'Judge Gift Cards 2008'
p2364
g1
((lp2365
g6
aS'Living Wish'
p2366
aS"Mind's Desire"
p2367
ag584
aS"Orim's Chant"
p2368
atp2369
Rp2370
sS'Portal Three Kingdoms'
p2371
g1
((lp2372
S'Pang Tong, "Young Phoenix"'
p2373
aS'Huang Zhong, Shu General'
p2374
aS"Guan Yu's 1,000-Li March"
p2375
aS'Eightfold Maze'
p2376
aS'Hua Tuo, Honored Physician'
p2377
aS'Guan Yu, Sainted Warrior'
p2378
aS'Exhaustion'
p2379
aS'Kongming, "Sleeping Dragon"'
p2380
atp2381
Rp2382
sS"Dragon's Maze Promos"
p2383
g1
((lp2384
S'Breaking '
p2385
ag1661
ag1680
ag1683
atp2386
Rp2387
sS'IDW Comics 2012'
p2388
g1
((lp2389
S'Breath of Malfegor'
p2390
aS'Standstill'
p2391
aS'Treasure Hunt'
p2392
aS'Faithless Looting'
p2393
aS'Arrest'
p2394
aS'Feast of Blood'
p2395
aS'Electrolyze'
p2396
aS'Consume Spirit'
p2397
aS'Turnabout'
p2398
atp2399
Rp2400
sS'IDW Comics 2013'
p2401
g1
((lp2402
S'High Tide'
p2403
aS'Corrupt'
p2404
aS'Voidmage Husher'
p2405
aS'Ogre Arsonist'
p2406
ag1269
atp2407
Rp2408
sS'Born of the Gods'
p2409
g1
((lp2410
S'Eidolon of Countless Battles'
p2411
aS'Fated Infatuation'
p2412
aS'Forgestoker Dragon'
p2413
aS'Fated Intervention'
p2414
aS"Heroes' Podium"
p2415
aS'Gild'
p2416
aS'Fated Conflagration'
p2417
aS'Fated Retribution'
p2418
aS'Hero of Leina Tower'
p2419
aS'Felhide Spiritbinder'
p2420
aS'Fate Unraveler'
p2421
aS'Herald of Torment'
p2422
aS'Fated Return'
p2423
ag1924
aS'Eater of Hope'
p2424
aS'Hero of Iroas'
p2425
atp2426
Rp2427
sS'IDW Comics 2014'
p2428
g1
((lp2429
S'Acquire'
p2430
aS'Wash Out'
p2431
aS'Duress'
p2432
atp2433
Rp2434
sS'Arabian Nights'
p2435
g1
((lp2436
S'Erhnam Djinn'
p2437
aS'Ifh-B\xc3\xadff Efreet'
p2438
aS'Guardian Beast'
p2439
aS'Jun\xc3\xban Efreet'
p2440
aS'Elephant Graveyard'
p2441
ag1712
ag1743
aS'Juz\xc3\xa1m Djinn'
p2442
aS"Ring of Ma'r\xc3\xbbf"
p2443
aS'Drop of Honey'
p2444
atp2445
Rp2446
sS'Theros'
p2447
g1
((lp2448
S'Hundred-Handed One'
p2449
aS'Firedrinker Satyr'
p2450
aS'Fleecemane Lion'
p2451
aS'Fabled Hero'
p2452
aS'Hammer of Purphoros'
p2453
aS"Hero's Downfall"
p2454
aS'Gift of Immortality'
p2455
ag1353
atp2456
Rp2457
sS'Scars of Mirrodin'
p2458
g1
((lp2459
S'Hoard-Smelter Dragon'
p2460
aS'Ezuri, Renegade Leader'
p2461
ag1046
aS'Engulfing Slagwurm'
p2462
aS'Etched Champion'
p2463
ag96
aS'Genesis Wave'
p2464
aS"Ezuri's Brigade"
p2465
aS'Hand of the Praetors'
p2466
atp2467
Rp2468
sS'Conspiracy: Take the Crown'
p2469
g1
((lp2470
S'Hallowed Burial'
p2471
ag1188
aS'Burgeoning'
p2472
aS'Psychosis Crawler'
p2473
aS'Wild Pair'
p2474
ag204
aS'Spirit of the Hearth'
p2475
ag1494
aS'Sangromancer'
p2476
ag193
aS'Inquisition of Kozilek'
p2477
aS'Paliano Vanguard'
p2478
aS'Horn of Greed'
p2479
ag1196
ag1912
ag144
ag227
aS'Regal Behemoth'
p2480
aS"Emissary's Ploy"
p2481
aS'Covenant of Minds'
p2482
ag1079
ag232
aS'Weight Advantage'
p2483
ag212
aS'Followed Footsteps'
p2484
ag233
ag1917
ag2011
aS'Charmbreaker Devils'
p2485
aS'Duskmantle Seer'
p2486
ag238
ag202
aS'Volatile Chimera'
p2487
ag2014
aS'Sphinx of Magosi'
p2488
aS'Caller of the Untamed'
p2489
ag241
ag2360
aS'Arcane Savant'
p2490
aS'Hedron Matrix'
p2491
ag2449
aS'Hold the Perimeter'
p2492
aS'Kami of the Crescent Moon'
p2493
ag1858
ag247
aS'Gratuitous Violence'
p2494
aS'Archdemon of Paliano'
p2495
aS'Capital Punishment'
p2496
ag1407
ag245
atp2497
Rp2498
sS'2017 Gift Pack'
p2499
g1
((lp2500
S'Plains'
p2501
aS'Swamp'
p2502
aS'Forest'
p2503
aS'Mountain'
p2504
aS'Island'
p2505
atp2506
Rp2507
sS'Miscellaneous Book Promos'
p2508
g1
((lp2509
S'Jace Beleren'
p2510
atp2511
Rp2512
sS'Ravnica: City of Guilds'
p2513
g1
((lp2514
g1247
aS'Sunforger'
p2515
aS'Mindleech Mass'
p2516
ag1251
ag1252
aS'Gleancrawler'
p2517
ag1254
aS'Hex'
p2518
ag1255
aS'Hunted Dragon'
p2519
ag1092
ag20
aS"Razia's Purification"
p2520
ag311
ag257
aS'Autochthon Wurm'
p2521
ag1261
aS'Necroplasm'
p2522
aS'Eye of the Storm'
p2523
aS'Bloodletter Quill'
p2524
ag1798
ag49
ag1264
aS'Vulturous Zombie'
p2525
aS'Hunted Lammasu'
p2526
aS'Tunnel Vision'
p2527
ag2484
aS'Vinelasher Kudzu'
p2528
aS'Molten Sentry'
p2529
aS'Bottled Cloister'
p2530
ag1272
ag60
aS'Dark Confidant'
p2531
aS'Nullstone Gargoyle'
p2532
aS'Moonlight Bargain'
p2533
aS'Phytohydra'
p2534
ag1040
ag41
aS"Pariah's Shield"
p2535
aS'Breath of Fury'
p2536
ag1267
ag1278
aS'Grozoth'
p2537
ag1281
ag1277
ag79
ag1288
aS'Loxodon Gatekeeper'
p2538
ag1936
aS'Bloodbond March'
p2539
aS'Primordial Sage'
p2540
aS'Shadow of Doubt'
p2541
aS'Ursapine'
p2542
ag1258
aS'Scion of the Wild'
p2543
aS'Helldozer'
p2544
aS'Dimir Cutpurse'
p2545
aS'Light of Sanction'
p2546
aS'Three Dreams'
p2547
aS'Hunted Troll'
p2548
aS'Plague Boiler'
p2549
aS'Dream Leash'
p2550
ag1079
aS'Concerted Effort'
p2551
aS'Blood Funnel'
p2552
ag1265
aS'Woodwraith Corrupter'
p2553
aS'Hunted Horror'
p2554
aS'Sins of the Past'
p2555
aS'Crown of Convergence'
p2556
aS'Mindmoil'
p2557
aS'Chorus of the Conclave'
p2558
aS'Empty the Catacombs'
p2559
aS'Cerulean Sphinx'
p2560
aS'Flickerform'
p2561
aS'Excruciator'
p2562
aS'Hunted Phantasm'
p2563
ag1280
ag272
aS'Ghosts of the Innocent'
p2564
aS'Cloudstone Curio'
p2565
aS'Searing Meditation'
p2566
ag1282
aS'Hammerfist Giant'
p2567
aS'Flame Fusillade'
p2568
aS'Spawnbroker'
p2569
aS'Woebringer Demon'
p2570
ag1286
atp2571
Rp2572
sS'XLN Standard Showdown'
p2573
g1
((lp2574
g2501
ag2502
ag2503
ag2504
ag2505
atp2575
Rp2576
sS'Arena League 2001'
p2577
g1
((lp2578
g745
aS'Diabolic Edict'
p2579
aS'Fling'
p2580
aS'Empyrial Armor'
p2581
aS'Creeping Mold'
p2582
aS'Dismiss'
p2583
atp2584
Rp2585
sS'Pro Tour Collector Set'
p2586
g1
((lp2587
g1577
ag1591
ag1538
aS'Necropotence'
p2588
ag1744
aS'Lava Tubes'
p2589
ag1633
aS"Jester's Cap"
p2590
ag1751
aS'Ring of Renewal'
p2591
ag1607
ag1610
ag1552
ag1553
ag1758
ag1614
ag2052
ag1560
ag1618
ag1620
ag1621
ag2042
ag907
aS'Sylvan Library'
p2592
aS'Orgg'
p2593
ag1628
ag1626
ag1632
ag2061
ag1728
aS'Safe Haven'
p2594
ag1571
aS'Aeolipile'
p2595
ag2066
ag909
aS'Blinking Spirit'
p2596
ag1558
aS'Land Tax'
p2597
ag1584
ag1637
aS'Stormbind'
p2598
atp2599
Rp2600
sS'Limited Edition Alpha'
p2601
g1
((lp2602
g1694
ag1695
ag1696
ag1698
ag1699
ag1565
ag1700
ag1701
ag1702
ag1703
ag1544
ag1781
aS'Cyclopean Tomb'
p2603
ag1770
ag1705
ag1706
aS'Two-Headed Giant of Foriys'
p2604
ag1707
ag1708
ag1728
ag1753
ag1710
aS'Timetwister'
p2605
ag1552
ag1554
ag1716
ag1721
ag1558
aS'Chaos Orb'
p2606
ag1559
ag1560
aS'Lich'
p2607
aS'Mox Jet'
p2608
ag1597
aS'Time Vault'
p2609
aS'Illusionary Mask'
p2610
ag1720
ag1563
ag1722
ag1723
ag1724
ag1725
ag1726
ag1697
ag1709
aS'Mox Pearl'
p2611
ag1730
ag1731
ag1577
ag1759
ag1611
ag1733
aS'Natural Selection'
p2612
ag1734
ag1601
ag1763
ag1588
ag1738
ag1607
ag1739
ag1740
ag1592
ag1538
ag1742
ag1732
aS'Mox Sapphire'
p2613
ag1736
aS'Gauntlet of Might'
p2614
ag1746
ag1747
ag1603
ag1718
ag1749
ag1751
ag1606
ag1778
aS'Forcefield'
p2615
ag1754
ag1755
ag1756
ag1757
ag1614
ag1758
aS'Ancestral Recall'
p2616
ag1760
ag1761
ag1762
ag1737
ag1618
ag1765
ag1625
ag1766
ag1767
ag1626
ag1768
ag1769
aS'Blaze of Glory'
p2617
aS'Raging River'
p2618
ag1772
aS'Word of Command'
p2619
ag1773
aS'Time Walk'
p2620
ag1748
ag1774
ag1775
ag1776
ag1735
ag1750
aS'Mox Ruby'
p2621
ag1779
ag1780
aS'Black Lotus'
p2622
ag1782
ag1637
aS'Mox Emerald'
p2623
ag1639
atp2624
Rp2625
sS'Kaladesh'
p2626
g1
((lp2627
S'Dubious Challenge'
p2628
aS'Gonti, Lord of Luxury'
p2629
aS'Fleetwheel Cruiser'
p2630
aS'Fateful Showdown'
p2631
aS'Fumigate'
p2632
aS'Electrostatic Pummeler'
p2633
aS'Ghirapur Orrery'
p2634
aS'Eliminate the Competition'
p2635
aS'Dynavolt Tower'
p2636
atp2637
Rp2638
sS'Khans of Tarkir'
p2639
g1
((lp2640
S'Flying Crane Technique'
p2641
aS'Duneblast'
p2642
aS'Howl of the Horde'
p2643
aS'End Hostilities'
p2644
aS'Herald of Anafenza'
p2645
ag1892
aS'Hardened Scales'
p2646
ag2358
ag1893
aS'High Sentinels of Arashin'
p2647
atp2648
Rp2649
sS'Avacyn Restored Promos'
p2650
g1
((lp2651
S'Silverblade Paladin'
p2652
aS'Restoration Angel'
p2653
aS'Killing Wave'
p2654
aS'Moonsilver Spear'
p2655
atp2656
Rp2657
sS'Gateway 2006'
p2658
g1
((lp2659
g747
aS'Wood Elves'
p2660
ag782
atp2661
Rp2662
sS'Gateway 2007'
p2663
g1
((lp2664
S'Reckless Wurm'
p2665
aS'Dauntless Dourbark'
p2666
aS'Zoetic Cavern'
p2667
aS'Mind Stone'
p2668
aS'Yixlid Jailer'
p2669
aS'Mogg Fanatic'
p2670
aS'Boomerang'
p2671
aS'Calciderm'
p2672
aS'Llanowar Elves'
p2673
atp2674
Rp2675
sS'Arena New Player Experience'
p2676
g1
((lp2677
S'Chaos Maw'
p2678
atp2679
Rp2680
sS'Gateway 2008'
p2681
g1
((lp2682
S"Oona's Blackguard"
p2683
aS'Duergar Hedge-Mage'
p2684
aS"Cenn's Tactician"
p2685
aS'Gravedigger'
p2686
aS'Selkie Hedge-Mage'
p2687
aS'Boggart Ram-Gang'
p2688
aS'Lava Axe'
p2689
aS'Wilt-Leaf Cavaliers'
p2690
atp2691
Rp2692
sS'Duel Decks Anthology: Jace vs. Chandra'
p2693
g1
((lp2694
S'Demonfire'
p2695
aS'Guile'
p2696
aS'Hostility'
p2697
aS'Ancestral Vision'
p2698
aS'Quicksilver Dragon'
p2699
aS'Rakdos Pit Dragon'
p2700
atp2701
Rp2702
sS'Nationals Promos'
p2703
g1
((lp2704
g2358
atp2705
Rp2706
sS'New Phyrexia Promos'
p2707
g1
((lp2708
S'Myr Superion'
p2709
aS'Surgical Extraction'
p2710
aS'Phyrexian Metamorph'
p2711
atp2712
Rp2713
sS'Fate Reforged'
p2714
g1
((lp2715
S'Frontier Siege'
p2716
ag570
ag579
ag574
atp2717
Rp2718
sS'Tenth Edition'
p2719
g1
((lp2720
g1079
aS'Avatar of Might'
p2721
ag1065
aS'Nomad Mythmaker'
p2722
ag1364
ag1011
aS'Crucible of Worlds'
p2723
ag1068
aS'The Hive'
p2724
aS'Legacy Weapon'
p2725
aS'Joiner Adept'
p2726
aS'Scoria Wurm'
p2727
aS'Paladin en-Vec'
p2728
aS'Time Stretch'
p2729
aS'Mirri, Cat Warrior'
p2730
aS'Windborn Muse'
p2731
aS'Razormane Masticore'
p2732
aS'March of the Machines'
p2733
ag1373
ag1074
aS'Head Games'
p2734
aS'Soulblast'
p2735
aS'Righteousness'
p2736
ag917
aS'Loyal Sentry'
p2737
aS'Doubling Cube'
p2738
aS'Beacon of Destruction'
p2739
ag1384
aS'Shivan Hellkite'
p2740
ag1385
ag1387
ag956
ag1024
ag1044
aS'Mortivore'
p2741
ag1093
aS'Graveborn Muse'
p2742
aS'Dreamborn Muse'
p2743
ag1455
aS'Chimeric Staff'
p2744
aS'Ambassador Laquatus'
p2745
ag1085
aS'Doomed Necromancer'
p2746
aS'Field Marshal'
p2747
aS'Denizen of the Deep'
p2748
ag1092
aS'Citanul Flute'
p2749
ag1401
ag1402
ag1087
aS'Cho-Manno, Revolutionary'
p2750
ag1099
aS'Sengir Vampire'
p2751
aS'Rootwater Matriarch'
p2752
aS'Time Stop'
p2753
ag1788
ag1407
ag1408
aS'Bloodfire Colossus'
p2754
ag1104
aS'Phage the Untouchable'
p2755
aS'Beacon of Unrest'
p2756
ag1358
aS'Abundance'
p2757
aS'Mobilization'
p2758
ag503
aS'Arcanis the Omnipotent'
p2759
ag980
ag1371
ag1419
aS'Voice of All'
p2760
aS'Ascendant Evincar'
p2761
ag509
ag1801
ag1073
ag1425
aS'Shunt'
p2762
aS'Plagiarize'
p2763
aS"Hurkyl's Recall"
p2764
aS'Platinum Angel'
p2765
aS'Sunken Hope'
p2766
ag968
aS'Root Maze'
p2767
aS'Furnace of Rath'
p2768
aS'Mind Bend'
p2769
aS'Molimo, Maro-Sorcerer'
p2770
ag1432
aS"Gaea's Herald"
p2771
aS'Sleeper Agent'
p2772
aS'Beacon of Immortality'
p2773
aS'Lord of the Undead'
p2774
aS'Cephalid Constable'
p2775
ag2262
ag1204
aS'Troll Ascetic'
p2776
ag1437
aS'True Believer'
p2777
ag1439
ag1440
ag1086
aS'Plague Wind'
p2778
ag1032
ag529
ag1089
ag305
aS'Grave Pact'
p2779
aS'Lord of the Pit'
p2780
aS'Midnight Ritual'
p2781
aS'Story Circle'
p2782
aS'Scalpelexis'
p2783
ag1966
aS'Upwelling'
p2784
aS'Kamahl, Pit Fighter'
p2785
ag2543
ag2295
aS'Mortal Combat'
p2786
aS'Dragon Roost'
p2787
aS'Loxodon Warhammer'
p2788
ag925
aS'Sculpting Steel'
p2789
ag1057
atp2790
Rp2791
sS'Duel Decks: Speed vs. Cunning'
p2792
g1
((lp2793
g801
aS"Hell's Thunder"
p2794
aS'Steam Augury'
p2795
aS'Thousand Winds'
p2796
aS'Fury of the Horde'
p2797
ag1168
ag985
ag1855
ag671
ag1197
atp2798
Rp2799
sS'Grand Prix Promos'
p2800
g1
((lp2801
g2504
ag259
ag2505
ag2502
ag2503
ag965
aS'Lotus Cobra'
p2802
aS'Spiritmonger'
p2803
ag2501
aS'All Is Dust'
p2804
aS'Chrome Mox'
p2805
aS'Sword of Feast and Famine'
p2806
ag275
ag10
ag716
ag279
atp2807
Rp2808
sS'Invasion'
p2809
g1
((lp2810
S'Empress Galina'
p2811
ag1364
aS'Dueling Grounds'
p2812
aS'Fight or Flight'
p2813
aS"Hanna, Ship's Navigator"
p2814
aS'Harsh Judgment'
p2815
aS'Ghitu Fire'
p2816
aS'Dromar, the Banisher'
p2817
aS'Global Ruin'
p2818
aS'Aether Rift'
p2819
atp2820
Rp2821
sS'Judgment'
p2822
g1
((lp2823
S'Epic Struggle'
p2824
aS'Erhnam Djinn'
p2825
aS'Golden Wish'
p2826
aS'Glory'
p2827
aS'Guiltfeeder'
p2828
aS'Fledgling Dragon'
p2829
ag267
aS'Hunting Grounds'
p2830
aS'Dwarven Bloodboiler'
p2831
atp2832
Rp2833
sS'Innistrad'
p2834
g1
((lp2835
S'Endless Ranks of the Dead'
p2836
aS'Heartless Summoning'
p2837
aS'Elder of Laurels'
p2838
aS'Falkenrath Marauders'
p2839
aS'Geist-Honored Monk'
p2840
aS'Elite Inquisitor'
p2841
aS'Hinterland Harbor'
p2842
aS'Gutter Grime'
p2843
aS'Gavony Township'
p2844
ag2269
aS"Heretic's Punishment"
p2845
atp2846
Rp2847
sS'Dominaria Promos'
p2848
g1
((lp2849
S'Squee, the Immortal'
p2850
aS"Karn's Temporal Sundering"
p2851
aS"Yawgmoth's Vile Offering"
p2852
aS"Lich's Mastery"
p2853
aS'The Mirari Conjecture'
p2854
aS'Thran Temporal Gateway'
p2855
aS'Aryel, Knight of Windgrace'
p2856
aS'Marwyn, the Nurturer'
p2857
aS'Kazarov, Sengir Pureblood'
p2858
ag1801
aS'Isolated Chapel'
p2859
aS'The First Eruption'
p2860
aS'Cabal Stronghold'
p2861
aS'Clifftop Retreat'
p2862
aS'Dread Shade'
p2863
aS'Daring Archaeologist'
p2864
aS'Oath of Teferi'
p2865
aS'Zahid, Djinn of the Lamp'
p2866
aS"Mishra's Self-Replicator"
p2867
aS'Fall of the Thran'
p2868
aS'Grand Warlord Radha'
p2869
aS'Woodland Cemetery'
p2870
aS"Urza's Ruinous Blast"
p2871
ag1093
ag2842
aS"Jaya's Immolating Inferno"
p2872
aS'Benalish Marshal'
p2873
aS"Teshar, Ancestor's Apostle"
p2874
aS'The Mending of Dominaria'
p2875
aS'Territorial Allosaurus'
p2876
aS"Forebear's Blade"
p2877
aS'Evra, Halcyon Witness'
p2878
aS'Blackblade Reforged'
p2879
aS'Two-Headed Giant'
p2880
aS'Josu Vess, Lich Knight'
p2881
aS'Helm of the Host'
p2882
aS'Sylvan Awakening'
p2883
aS'Rite of Belzenlok'
p2884
aS"Primevals' Glorious Rebirth"
p2885
aS"Kamahl's Druidic Vow"
p2886
aS'Torgaar, Famine Incarnate'
p2887
aS'Precognition Field'
p2888
aS'Goblin Chainwhirler'
p2889
aS'Haphazard Bombardment'
p2890
aS'Jodah, Archmage Eternal'
p2891
aS'Traxos, Scourge of Kroog'
p2892
aS'Shalai, Voice of Plenty'
p2893
aS'Naban, Dean of Iteration'
p2894
aS'Sulfur Falls'
p2895
ag1219
aS'Tempest Djinn'
p2896
aS'The Antiquities War'
p2897
aS'Steel Leaf Champion'
p2898
atp2899
Rp2900
sS'Gatecrash'
p2901
g1
((lp2902
S'Godless Shrine'
p2903
aS'Frontline Medic'
p2904
aS'Five-Alarm Fire'
p2905
aS'Gruul Ragebeast'
p2906
aS'Glaring Spotlight'
p2907
ag1248
aS'High Priest of Penance'
p2908
aS'Gyre Sage'
p2909
aS'Foundry Champion'
p2910
aS'Fathom Mage'
p2911
atp2912
Rp2913
sS'Duel Decks Anthology: Divine vs. Demonic'
p2914
g1
((lp2915
g1788
aS'Kuro, Pitlord'
p2916
aS'Reiver Demon'
p2917
aS'Promise of Power'
p2918
aS'Luminous Angel'
p2919
aS'Twilight Shepherd'
p2920
atp2921
Rp2922
sS'Rise of the Eldrazi'
p2923
g1
((lp2924
g339
aS'Splinter Twin'
p2925
aS'Drana, Kalastria Bloodchief'
p2926
aS'Gelatinous Genesis'
p2927
aS'Renegade Doppelganger'
p2928
aS'Eldrazi Conscription'
p2929
aS'Lightmine Field'
p2930
aS'Devastating Summons'
p2931
aS'Realms Uncharted'
p2932
aS'Hedron-Field Purists'
p2933
aS'Echo Mage'
p2934
aS'Guul Draz Assassin'
p2935
aS'Gravitational Shift'
p2936
aS'Keening Stone'
p2937
aS'Umbra Mystic'
p2938
aS'Coralhelm Commander'
p2939
aS'Mortician Beetle'
p2940
aS'Rage Nimbus'
p2941
aS'Near-Death Experience'
p2942
aS'Repay in Kind'
p2943
aS'Student of Warfare'
p2944
aS'Disaster Radius'
p2945
aS'Tuktuk the Explorer'
p2946
aS'Consuming Vapors'
p2947
aS'Angelheart Vial'
p2948
aS'Spawnsire of Ulamog'
p2949
ag2491
aS'Gigantomancer'
p2950
ag342
aS'Lord of Shatterskull Pass'
p2951
aS"Nomads' Assembly"
p2952
ag2488
ag344
aS'Thought Gorger'
p2953
aS'Baneful Omen'
p2954
aS'Bear Umbra'
p2955
aS'Sphinx-Bone Wand'
p2956
aS'Kazandu Tuskcaller'
p2957
aS'Awakening Zone'
p2958
aS'Recurring Insight'
p2959
ag2289
aS'Momentous Fall'
p2960
aS'Deathless Angel'
p2961
aS'Training Grounds'
p2962
aS'Tajuru Preserver'
p2963
aS'Surrakar Spellblade'
p2964
aS'Dormant Gomazoa'
p2965
ag341
aS'Eldrazi Temple'
p2966
aS'World at War'
p2967
aS'Conquering Manticore'
p2968
aS'Mul Daya Channelers'
p2969
aS'Pestilence Demon'
p2970
atp2971
Rp2972
sS'Duel Decks: Knights vs. Dragons'
p2973
g1
((lp2974
g1840
ag2740
aS'Kilnmouth Dragon'
p2975
ag1118
aS'Knotvine Paladin'
p2976
aS'Mordant Dragon'
p2977
ag485
ag616
ag2788
aS'Kinsbaile Cavalier'
p2978
atp2979
Rp2980
sS'Duel Decks: Divine vs. Demonic'
p2981
g1
((lp2982
g2917
ag2916
ag2920
ag1422
ag1788
ag1358
ag2918
ag2919
atp2983
Rp2984
sS'Shards of Alara'
p2985
g1
((lp2986
g2794
aS'Gather Specimens'
p2987
aS'Goblin Assault'
p2988
ag1166
ag266
aS'Feral Hydra'
p2989
atp2990
Rp2991
sS'Eventide'
p2992
g1
((lp2993
g2471
aS'Fiery Bombardment'
p2994
aS'Evershrike'
p2995
aS'Fable of Wolf and Owl'
p2996
ag1939
aS'Hateflayer'
p2997
aS'Helix Pinnacle'
p2998
ag1948
aS'Fetid Heath'
p2999
aS'Endless Horizons'
p3000
aS'Glamerdye'
p3001
aS'Flooded Grove'
p3002
atp3003
Rp3004
sS'World Championship Decks 2000'
p3005
g1
((lp3006
g318
ag320
aS'Saproling Burst'
p3007
ag143
aS'Pattern of Rebirth'
p3008
ag142
aS'Saproling Cluster'
p3009
aS'Opalescence'
p3010
aS'Academy Rector'
p3011
aS'Cursed Totem'
p3012
aS'Whetstone'
p3013
aS'Phyrexian Tower'
p3014
ag1385
ag2303
aS'Parallax Tide'
p3015
aS'Plow Under'
p3016
aS'Crumbling Sanctuary'
p3017
ag1079
ag1414
ag1437
aS'Snake Basket'
p3018
aS'Serra Avatar'
p3019
ag1440
aS'Attunement'
p3020
aS'Energy Field'
p3021
aS'Thran Quarry'
p3022
aS'Parallax Wave'
p3023
ag541
aS'Tangle Wire'
p3024
aS'Grim Monolith'
p3025
aS'Masticore'
p3026
aS"Yawgmoth's Bargain"
p3027
ag1401
aS'Metalworker'
p3028
aS'Defense Grid'
p3029
aS'Rising Waters'
p3030
ag333
aS"Mishra's Helix"
p3031
aS'Rishadan Port'
p3032
aS'Replenish'
p3033
ag548
ag1456
atp3034
Rp3035
sS'World Championship Decks 2001'
p3036
g1
((lp3037
S'Skizzik'
p3038
ag1439
ag1440
ag1011
aS"Tsabo's Web"
p3039
aS'Obliterate'
p3040
ag3007
aS"Teferi's Response"
p3041
ag541
aS'Crypt Angel'
p3042
ag1412
ag1425
ag2803
aS'Nether Spirit'
p3043
aS'Blood Oath'
p3044
aS'Blazing Specter'
p3045
aS"Urza's Rage"
p3046
aS'Phyrexian Scuta'
p3047
aS'Misdirection'
p3048
ag144
aS"Tsabo's Assassin"
p3049
ag1079
ag1386
aS'Mana Maze'
p3050
ag1024
aS"Tsabo's Decree"
p3051
ag3032
aS'Undermine'
p3052
atp3053
Rp3054
sS'World Championship Decks 2002'
p3055
g1
((lp3056
g2366
aS'Upheaval'
p3057
ag1440
aS'Anurid Brushhopper'
p3058
ag1032
aS'Darkwater Catacombs'
p3059
ag3041
ag541
ag1210
ag2306
ag1425
ag267
ag2818
ag1428
aS'Sylvan Safekeeper'
p3060
ag2827
aS'Phantom Nishoba'
p3061
ag1079
ag1401
ag1386
ag1024
ag716
atp3062
Rp3063
sS'World Championship Decks 2003'
p3064
g1
((lp3065
S'Symbiotic Wurm'
p3066
ag1437
ag303
aS'Goblin Sharpshooter'
p3067
ag278
ag2759
ag3058
aS'Shadowblood Ridge'
p3068
ag260
ag2746
ag541
ag2360
ag2306
aS'Starstorm'
p3069
aS'Vengeful Dreams'
p3070
aS'Undead Gladiator'
p3071
aS'Skycloud Expanse'
p3072
ag155
ag584
ag2828
ag2353
aS"Patriarch's Bidding"
p3073
aS'Visara the Dreadful'
p3074
ag16
ag3061
ag2358
ag777
ag2313
ag1093
atp3075
Rp3076
sS'World Championship Decks 2004'
p3077
g1
((lp3078
g1437
ag260
ag1959
ag99
aS'Eternal Dragon'
p3079
aS'Goblin Charbelcher'
p3080
aS'Krark-Clan Ironworks'
p3081
ag2805
ag2358
aS'Furnace Dragon'
p3082
ag1946
ag2313
ag2359
aS"Akroma's Vengeance"
p3083
ag3016
ag2361
aS'Myr Incubator'
p3084
ag1977
atp3085
Rp3086
sS'Duel Decks: Garruk vs. Liliana'
p3087
g1
((lp3088
g1973
ag753
ag2305
ag1212
aS'Plated Slagwurm'
p3089
ag1977
atp3090
Rp3091
sS'M19 Standard Showdown'
p3092
g1
((lp3093
g2501
ag2502
ag2503
ag2504
ag2505
atp3094
Rp3095
sS'Game Night'
p3096
g1
((lp3097
g2227
aS'Always Watching'
p3098
ag2873
ag593
ag2866
aS'Captivating Crew'
p3099
ag597
aS"Liliana's Mastery"
p3100
ag1093
ag618
atp3101
Rp3102
sS'Gatecrash Promos'
p3103
g1
((lp3104
S'Skarrg Goliath'
p3105
ag1276
ag1248
ag1284
ag2910
aS'Treasury Thrull'
p3106
aS'Rubblehulk'
p3107
ag2911
atp3108
Rp3109
sS'Intl. Collectors\xe2\x80\x99 Edition'
p3110
g1
((lp3111
g1694
ag1695
ag1696
ag1698
ag1699
ag1565
ag1700
ag1701
ag1702
ag1703
ag1544
ag1781
ag2603
ag2617
ag1705
ag1706
ag2604
ag1707
ag1708
ag1728
ag1753
ag1710
ag2605
ag1552
ag1554
ag1716
ag1721
ag1558
ag2606
ag1559
ag1560
ag2607
ag2608
ag1597
ag1718
ag2610
ag1720
ag1563
ag1722
ag1723
ag1724
ag1725
ag1726
ag1697
ag1709
ag2611
ag1729
ag1730
ag1731
ag1577
ag1759
ag1611
ag1733
ag2612
ag1734
ag1601
ag1737
ag1588
ag1738
ag1607
ag1739
ag1740
ag1592
ag1538
ag1742
ag1732
ag2613
ag1736
ag2614
ag1746
ag1747
ag1603
ag2609
ag1749
ag1751
ag1606
ag1778
ag2615
ag1754
ag1755
ag1756
ag1757
ag1614
ag1758
ag2616
ag1760
ag1761
ag1762
ag1763
ag1618
ag1765
ag1625
ag1766
ag1767
ag1626
ag1768
ag1769
ag1770
ag2618
ag1772
ag2619
ag1773
ag2620
ag1748
ag1774
ag1775
ag1776
ag1735
ag1750
ag2621
ag1779
ag1780
ag2622
ag1782
ag1637
ag2623
ag1639
atp3112
Rp3113
sS'Shadows over Innistrad Promos'
p3114
g1
((lp3115
S'Fortified Village'
p3116
aS'Elusive Tormentor // Insidious Mist'
p3117
aS"Slayer's Plate"
p3118
aS'Flameblade Angel'
p3119
aS'Fevered Visions'
p3120
aS"Avacyn's Judgment"
p3121
aS"Tamiyo's Journal"
p3122
aS'Silverfur Partisan'
p3123
aS'Bygone Bishop'
p3124
aS'Invocation of Saint Traft'
p3125
aS'Altered Ego'
p3126
aS'Rattlechains'
p3127
aS"Devils' Playground"
p3128
aS'Hanweir Militia Captain // Westvale Cult Leader'
p3129
aS'Westvale Abbey // Ormendahl, Profane Prince'
p3130
aS'Harness the Storm'
p3131
aS'Nephalia Moondrakes'
p3132
aS'Drownyard Temple'
p3133
aS'Port Town'
p3134
aS'Game Trail'
p3135
aS'To the Slaughter'
p3136
aS'Deathcap Cultivator'
p3137
aS'Odric, Lunarch Marshal'
p3138
aS'Markov Dreadknight'
p3139
aS'Burn from Within'
p3140
aS'Angel of Deliverance'
p3141
aS'Epiphany at the Drownyard'
p3142
aS'Tireless Tracker'
p3143
aS'Asylum Visitor'
p3144
aS'Declaration in Stone'
p3145
aS'Sin Prodder'
p3146
aS'Prized Amalgam'
p3147
aS'Choked Estuary'
p3148
aS'Diregraf Colossus'
p3149
aS'From Under the Floorboards'
p3150
aS'Thing in the Ice // Awoken Horror'
p3151
aS'Confirm Suspicions'
p3152
aS'Eerie Interlude'
p3153
aS'Falkenrath Gorger'
p3154
aS'Triskaidekaphobia'
p3155
aS'Anguished Unmaking'
p3156
aS'Drogskol Cavalry'
p3157
aS'Soul Swallower'
p3158
aS'Brain in a Jar'
p3159
aS'Traverse the Ulvenwald'
p3160
ag3098
aS'Forgotten Creation'
p3161
aS'Welcome to the Fold'
p3162
aS'Geier Reach Bandit // Vildin-Pack Alpha'
p3163
aS'Sage of Ancient Lore // Werewolf of Ancient Hunger'
p3164
aS'Inexorable Blob'
p3165
aS'Cryptolith Rite'
p3166
aS'Westvale Abbey '
p3167
aS'Engulf the Shore'
p3168
aS'Foreboding Ruins'
p3169
aS'Second Harvest'
p3170
aS'Ever After'
p3171
aS'Scourge Wolf'
p3172
aS"Thalia's Lieutenant"
p3173
aS'Corrupted Grafstone'
p3174
atp3175
Rp3176
sS'Tarkir Dragonfury'
p3177
g1
((lp3178
g646
atp3179
Rp3180
sS'Dark Ascension Promos'
p3181
g1
((lp3182
S'Gravecrawler'
p3183
aS"Mondronen Shaman // Tovolar's Magehunter"
p3184
aS'Mondronen Shaman '
p3185
aS'Zombie Apocalypse'
p3186
aS'Ravenous Demon // Archdemon of Greed'
p3187
atp3188
Rp3189
sS'Ixalan Promos'
p3190
g1
((lp3191
S'Repeating Barrage'
p3192
aS"Sunbird's Invocation"
p3193
aS'Deeproot Champion'
p3194
aS"Tilonalli's Skinshifter"
p3195
aS'Waker of the Wilds'
p3196
aS'Revel in Riches'
p3197
aS'Hostage Taker'
p3198
aS'Settle the Wreckage'
p3199
aS'Ripjaw Raptor'
p3200
aS'Ashes of the Abhorrent'
p3201
aS'Search for Azcanta // Azcanta, the Sunken Ruin'
p3202
aS'Bloodcrazed Paladin'
p3203
aS"Emperor's Vanguard"
p3204
aS'Mavren Fein, Dusk Apostle'
p3205
aS'Tocatli Honor Guard'
p3206
ag1081
aS'Sanguine Sacrament'
p3207
aS'Rampaging Ferocidon'
p3208
aS'Shadowed Caravel'
p3209
aS'Ruin Raider'
p3210
aS'Goring Ceratops'
p3211
aS"Vraska's Contempt"
p3212
aS'Bishop of Rebirth'
p3213
aS'Growing Rites of Itlimoc // Itlimoc, Cradle of the Sun'
p3214
ag1102
aS'Primal Amulet // Primal Wellspring'
p3215
aS'Dowsing Dagger // Lost Vale'
p3216
aS'Kopala, Warden of Waves'
p3217
aS"Arguel's Blood Fast // Temple of Aclazotz"
p3218
aS"Conqueror's Galleon // Conqueror's Foothold"
p3219
aS'Sword-Point Diplomacy'
p3220
aS'Fell Flagship'
p3221
aS'Thaumatic Compass // Spires of Orazca'
p3222
aS"Vanquisher's Banner"
p3223
aS'Deathgorge Scavenger'
p3224
aS"Vance's Blasting Cannons // Spitfire Bastion"
p3225
aS'Sanctum Seeker'
p3226
ag3099
aS"River's Rebuke"
p3227
aS'Priest of the Wakening Sun'
p3228
aS'Fleet Swallower'
p3229
aS'Entrancing Melody'
p3230
aS"Kinjalli's Sunwing"
p3231
ag1078
aS'Herald of Secret Streams'
p3232
aS'Sorcerous Spyglass'
p3233
aS'Deadeye Tracker'
p3234
aS'Fathom Fleet Captain'
p3235
aS"Verdant Sun's Avatar"
p3236
aS'Old-Growth Dryads'
p3237
aS'Captain Lannery Storm'
p3238
aS'Arcane Adaptation'
p3239
aS'Treasure Map // Treasure Cove'
p3240
ag1096
aS"Legion's Landing // Adanto, the First Fort"
p3241
aS"Angrath's Marauders"
p3242
aS'Regisaur Alpha'
p3243
aS'Dreamcaller Siren'
p3244
aS'Spell Swindle'
p3245
ag1067
aS"Burning Sun's Avatar"
p3246
aS"Shapers' Sanctuary"
p3247
aS'Daring Saboteur'
p3248
atp3249
Rp3250
sS'Planechase Anthology'
p3251
g1
((lp3252
S'Whirlpool Warrior'
p3253
aS'Silent-Blade Oni'
p3254
aS'Celestial Ancient'
p3255
aS'Preyseizer Dragon'
p3256
ag2011
aS'Mass Mutiny'
p3257
aS'Etherium-Horn Sorcerer'
p3258
aS'Indrik Umbra'
p3259
ag1154
aS"Sakashima's Student"
p3260
aS'Dark Hatchling'
p3261
ag97
ag877
aS'Predatory Urge'
p3262
aS'Mycoloth'
p3263
ag2958
ag1851
ag2289
aS'Quietus Spike'
p3264
ag130
ag1858
aS'Enigma Sphinx'
p3265
ag341
ag2547
aS'Ink-Eyes, Servant of Oni'
p3266
ag2766
aS'Last Stand'
p3267
aS'Elderwood Scion'
p3268
atp3269
Rp3270
sS'Visions'
p3271
g1
((lp3272
S'Flooded Shoreline'
p3273
aS'Femeref Enchantress'
p3274
aS'Eye of Singularity'
p3275
aS'Guiding Spirit'
p3276
aS'Firestorm Hellkite'
p3277
aS'Forbidden Ritual'
p3278
aS'Elkin Lair'
p3279
aS'Griffin Canyon'
p3280
aS'Equipoise'
p3281
atp3282
Rp3283
sS'Fifth Edition'
p3284
g1
((lp3285
g1696
ag1701
ag1542
aS'Magus of the Unseen'
p3286
ag891
ag1544
ag1546
ag1708
ag2044
ag1710
ag1711
ag1540
ag1552
ag1553
ag1554
ag1716
aS'Sand Silos'
p3287
ag1558
aS'Lhurgoyf'
p3288
ag1560
aS'Icatian Store'
p3289
ag1562
ag1563
ag2596
ag1571
ag1575
ag1576
ag1579
aS'Winds of Change'
p3290
ag2069
ag1584
aS"Barl's Cage"
p3291
ag1588
ag1739
ag1592
ag1741
aS'Caribou Range'
p3292
ag1604
ag892
ag1605
ag1752
ag1778
aS'Serpent Generator'
p3293
ag1612
ag1613
ag1758
ag1763
ag1621
ag1623
ag1625
aS'Mana Clash'
p3294
ag2593
ag1767
ag1626
aS'Infinite Hourglass'
p3295
ag1769
aS'Dance of Many'
p3296
ag945
aS'Xenic Poltergeist'
p3297
ag1773
ag907
ag1774
ag1633
aS'Bottomless Vault'
p3298
ag1639
aS'Crown of the Ages'
p3299
ag1826
ag1565
ag890
ag1591
ag1545
ag1548
ag1829
ag1559
ag1717
ag1719
aS'The Wretched'
p3300
aS'Hollow Trees'
p3301
aS'Stampede'
p3302
aS'Akron Legionnaire'
p3303
ag1628
ag1632
aS'Leviathan'
p3304
ag1697
ag1819
ag1570
ag1572
ag1577
ag1611
aS'Seraph'
p3305
aS'Time Elemental'
p3306
ag2070
ag1589
ag1738
ag1815
ag1538
ag2588
ag1732
ag1597
ag1736
ag1599
ag1601
ag1603
ag2040
ag2590
ag1751
ag1607
ag1695
ag1551
ag1614
ag1721
aS'Time Bomb'
p3307
aS'Dwarven Hold'
p3308
ag1618
ag1620
ag1610
ag1765
ag1624
ag2592
aS'Crimson Manticore'
p3309
aS'Ball Lightning'
p3310
ag2061
ag1722
ag1772
aS'Pox'
p3311
aS'Orcish Squatters'
p3312
ag1631
ag1725
ag1634
ag1742
ag1637
ag2073
atp3313
Rp3314
sS'Oath of the Gatewatch Promos'
p3315
g1
((lp3316
S'Call the Gatewatch'
p3317
aS'Jori En, Ruin Diver'
p3318
aS'Vile Redeemer'
p3319
aS'Gladehart Cavalry'
p3320
aS'Hissing Quagmire'
p3321
aS'Corrupted Crossroads'
p3322
aS'Sea Gate Wreckage'
p3323
aS'Eldrazi Obligator'
p3324
aS'Oath of Jace'
p3325
aS'Deepfathom Skulker'
p3326
aS'Stoneforge Masterwork'
p3327
aS'Reality Smasher'
p3328
aS'Tyrant of Valakut'
p3329
aS'Zendikar Resurgent'
p3330
aS'Oath of Nissa'
p3331
aS'Endbringer'
p3332
aS'Hedron Alignment'
p3333
aS'Remorseless Punishment'
p3334
aS'Mina and Denn, Wildborn'
p3335
aS'Needle Spires'
p3336
aS'Eldrazi Mimic'
p3337
aS'Matter Reshaper'
p3338
aS'Stone Haven Outfitter'
p3339
aS'Sylvan Advocate'
p3340
aS'Wandering Fumarole'
p3341
aS'Dimensional Infiltrator'
p3342
aS"Munda's Vanguard"
p3343
aS'Goblin Dark-Dwellers'
p3344
aS'Oath of Gideon'
p3345
aS'Ruins of Oran-Rief'
p3346
aS'Sifter of Skulls'
p3347
aS'Eldrazi Displacer'
p3348
aS'Dread Defiler'
p3349
aS'Overwhelming Denial'
p3350
aS'Fall of the Titans'
p3351
aS'Ayli, Eternal Pilgrim'
p3352
aS'Bearer of Silence'
p3353
aS"Drana's Chosen"
p3354
aS'Deceiver of Form'
p3355
aS"Captain's Claws"
p3356
aS'Thought-Knot Seer'
p3357
aS'Oath of Chandra'
p3358
atp3359
Rp3360
sS'Ninth Edition'
p3361
g1
((lp3362
g1185
ag1363
ag1364
aS'Marble Titan'
p3363
ag1011
ag1068
aS'Booby Trap'
p3364
ag3029
ag2728
ag1412
ag1371
ag1373
ag2768
aS'Savannah Lions'
p3365
ag2736
aS'Yawgmoth Demon'
p3366
aS'Storage Matrix'
p3367
ag1381
ag1385
ag1089
ag1387
ag2278
ag1430
ag1024
ag1044
ag2741
ag980
ag1216
ag1390
aS'Mindslicer'
p3368
ag1404
aS'Slate of Ancestry'
p3369
ag1392
ag1399
ag1086
ag2779
aS'Blinking Spirit'
p3370
aS'Mogg Sentry'
p3371
aS'Rathi Dragon'
p3372
ag1401
aS'Cowardice'
p3373
aS'Blinding Angel'
p3374
ag1099
ag2751
ag1405
ag1406
ag1408
ag2754
ag1104
ag1358
aS"Oracle's Attendants"
p3375
ag1413
ag1066
aS"Zur's Weirding"
p3376
aS'Imaginary Pet'
p3377
ag925
ag956
ag1438
ag1420
ag2782
ag1474
ag1644
ag509
ag1801
ag265
aS'Biorhythm'
p3378
ag1425
ag1426
ag2763
aS'Weird Harvest'
p3379
ag2774
ag1453
ag144
ag968
ag1431
ag2769
ag1432
aS'Trade Routes'
p3380
aS'Magnivore'
p3381
aS'Emperor Crocodile'
p3382
aS'Final Punishment'
p3383
ag1437
ag1439
ag1440
aS"Jester's Cap"
p3384
ag1442
ag2778
ag1074
ag1032
aS'Jade Statue'
p3385
ag1443
aS'Thran Golem'
p3386
aS'Rukh Egg'
p3387
ag529
aS'Death Pits of Rath'
p3388
aS'Ivory Mask'
p3389
aS'Thundermare'
p3390
aS"Will-o'-the-Wisp"
p3391
ag1423
ag1969
aS'Karplusan Yeti'
p3392
ag494
ag1073
ag2295
aS'Tidal Kraken'
p3393
aS"Hell's Caretaker"
p3394
ag2788
aS'Utopia Tree'
p3395
aS'Natural Affinity'
p3396
ag1456
ag1057
atp3397
Rp3398
sS'Arena League 1999'
p3399
g1
((lp3400
S'Pouncing Jaguar'
p3401
aS'Skittering Skirge'
p3402
aS'Karn, Silver Golem'
p3403
aS'Rewind'
p3404
atp3405
Rp3406
sS'Morningtide'
p3407
g1
((lp3408
S'Grimoire Thief'
p3409
aS'Gilt-Leaf Archdruid'
p3410
aS'Fendeep Summoner'
p3411
aS"Feudkiller's Verdict"
p3412
ag1944
aS'Greatbow Doyen'
p3413
atp3414
Rp3415
sS'Darksteel'
p3416
g1
((lp3417
S'Aether Snap'
p3418
aS'Fangren Firstborn'
p3419
aS'Gemini Engine'
p3420
aS'Eater of Days'
p3421
ag3082
aS'Flamebreak'
p3422
aS'Greater Harvester'
p3423
aS'Heartseeker'
p3424
atp3425
Rp3426
sS'Arena League 1996'
p3427
g1
((lp3428
S'Fireball'
p3429
aS'Disenchant'
p3430
atp3431
Rp3432
sS'Rivals Quick Start Set'
p3433
g1
((lp3434
S'Bog Imp'
p3435
aS'Pyrotechnics'
p3436
aS'Untamed Wilds'
p3437
aS'Disintegrate'
p3438
aS'Hill Giant'
p3439
ag1742
aS'Durkwood Boars'
p3440
aS'Terror'
p3441
aS'Pearled Unicorn'
p3442
aS'Whirling Dervish'
p3443
aS'Zephyr Falcon'
p3444
aS'Circle of Protection: Red'
p3445
ag3429
ag1607
ag1711
aS'Weakness'
p3446
aS'Scryb Sprites'
p3447
ag1552
aS'Vampire Bats'
p3448
aS'Murk Dwellers'
p3449
aS'Energy Flux'
p3450
aS'Battering Ram'
p3451
aS'War Mammoth'
p3452
aS'Raise Dead'
p3453
aS"Mons's Goblin Raiders"
p3454
aS'Wall of Bone'
p3455
aS'Orcish Oriflamme'
p3456
ag933
aS'Alabaster Potion'
p3457
ag1722
aS'Detonate'
p3458
aS'Glasses of Urza'
p3459
aS'Mesa Pegasus'
p3460
aS'Lost Soul'
p3461
aS'Power Sink'
p3462
aS'Ironclaw Orcs'
p3463
aS'Rod of Ruin'
p3464
aS'Healing Salve'
p3465
aS'Feedback'
p3466
aS'Bog Wraith'
p3467
aS'Dark Ritual'
p3468
aS'Grizzly Bears'
p3469
aS'Orcish Artillery'
p3470
aS'Merfolk of the Pearl Trident'
p3471
aS'Circle of Protection: Black'
p3472
aS'Winter Blast'
p3473
aS'Twiddle'
p3474
aS'Cursed Land'
p3475
aS'Unsummon'
p3476
atp3477
Rp3478
sS'Battle for Zendikar Promos'
p3479
g1
((lp3480
S'Shrine of the Forsaken Gods'
p3481
aS'Akoum Hellkite'
p3482
aS'Beastcaller Savant'
p3483
ag107
aS'Noyan Dar, Roil Shaper'
p3484
aS'Ruinous Path'
p3485
aS'Serpentine Spike'
p3486
aS'Munda, Ambush Leader'
p3487
ag116
aS'Woodland Wanderer'
p3488
aS'Prairie Stream'
p3489
aS'Conduit of Ruin'
p3490
ag110
ag346
aS'Shambling Vent'
p3491
ag106
aS'Sanctum of Ugin'
p3492
aS"Nissa's Renewal"
p3493
aS'Zada, Hedron Grinder'
p3494
aS'Lumbering Falls'
p3495
ag117
ag109
ag112
aS'Barrage Tyrant'
p3496
ag113
aS'Scatter to the Winds'
p3497
ag115
aS'Cinder Glade'
p3498
aS'Desolation Twin'
p3499
aS'March from the Tomb'
p3500
aS'Smothering Abomination'
p3501
aS'Defiant Bloodlord'
p3502
aS'Ally Encampment'
p3503
aS'Sunken Hollow'
p3504
aS'Bring to Light'
p3505
ag108
aS'Smoldering Marsh'
p3506
aS'Blight Herder'
p3507
aS'Canopy Vista'
p3508
aS'Angelic Captain'
p3509
aS'Wasteland Strangler'
p3510
aS'Planar Outburst'
p3511
ag114
aS'Brutal Expulsion'
p3512
aS"Ugin's Insight"
p3513
ag111
aS'Part the Waterveil'
p3514
aS'Radiant Flames'
p3515
aS'Lantern Scout'
p3516
aS'Brood Butcher'
p3517
aS'Painful Truths'
p3518
aS'Aligned Hedron Network'
p3519
ag1913
aS'Prism Array'
p3520
atp3521
Rp3522
sS'Commander Anthology Volume II'
p3523
g1
((lp3524
S'Vorosh, the Hunter'
p3525
aS'Riddlekeeper'
p3526
ag172
aS'Bane of the Living'
p3527
aS'Bitter Feud'
p3528
ag2519
ag2646
aS'Manifold Insights'
p3529
aS'Warmonger Hellkite'
p3530
aS'Champion of Lambholt'
p3531
ag180
aS'Sewer Nemesis'
p3532
ag2522
ag2460
ag1992
ag2697
ag210
aS'Word of Seizing'
p3533
aS'Borderland Behemoth'
p3534
ag2525
ag1162
ag2741
aS'Dream Pillager'
p3535
ag2945
ag2743
ag2946
ag683
aS'Taurean Mauler'
p3536
aS'Volcanic Offering'
p3537
aS'Myr Battlesphere'
p3538
aS'Impact Resonance'
p3539
ag2779
aS'Goblin Welder'
p3540
aS'Arbiter of Knollridge'
p3541
ag1689
aS'Scythe Specter'
p3542
ag3069
aS'Blasphemous Act'
p3543
aS'Caged Sun'
p3544
aS'Murmuring Bosk'
p3545
aS'Flamekin Village'
p3546
aS'Shared Trauma'
p3547
ag1922
ag147
aS"Cathars' Crusade"
p3548
ag1082
aS'Spine of Ish Sah'
p3549
aS'Lhurgoyf'
p3550
aS"Kalemne's Captain"
p3551
aS'Triskelavus'
p3552
ag618
aS'Sungrass Prairie'
p3553
aS'Ancient Amphitheater'
p3554
aS'Magma Giant'
p3555
ag217
ag261
ag1154
ag880
aS"Tyrant's Familiar"
p3556
ag1912
ag1425
aS'Spitting Image'
p3557
aS'Memory Erosion'
p3558
aS'Mirrorweave'
p3559
aS'Jareth, Leonine Titan'
p3560
aS'Sublime Exhalation'
p3561
aS'Sunrise Sovereign'
p3562
aS'Blade of Selves'
p3563
aS'Minds Aglow'
p3564
ag1383
aS'Junk Diver'
p3565
ag1903
aS'Cauldron of Souls'
p3566
ag2642
ag2776
ag962
ag2010
ag1220
aS'Bosh, Iron Golem'
p3567
ag1850
ag3059
ag309
ag1463
ag3261
ag796
aS'Ruby Medallion'
p3568
ag1174
aS'Merciless Eviction'
p3569
ag252
ag989
ag1211
aS'Incite Rebellion'
p3570
aS'Oblivion Stone'
p3571
ag1196
aS"Victory's Herald"
p3572
ag1858
ag1280
ag1967
aS'Astral Cornucopia'
p3573
aS'Dawnbreak Reclaimer'
p3574
aS'Steel Hellkite'
p3575
ag2567
aS"Urza's Incubator"
p3576
ag340
aS'Citadel Siege'
p3577
aS'Scrap Mastery'
p3578
aS'Magus of the Wheel'
p3579
aS'Fiery Confluence'
p3580
ag2911
ag2788
atp3581
Rp3582
sS'Eternal Masters'
p3583
g1
((lp3584
S"Green Sun's Zenith"
p3585
ag1922
ag93
aS'Gamble'
p3586
ag264
ag1264
aS'Heritage Druid'
p3587
aS'Giant Solifuge'
p3588
aS'Future Sight'
p3589
ag1503
ag16
ag3080
ag676
atp3590
Rp3591
sS'Fourth Edition'
p3592
g1
((lp3593
g1694
aS'Psionic Entity'
p3594
ag1695
ag1696
ag1698
ag1826
aS'Relic Bind'
p3595
ag1565
ag1701
ag1544
ag1545
ag1546
ag1705
ag1706
ag1708
ag1709
ag1710
ag1711
ag1712
ag1552
ag1713
ag1554
ag1714
ag1715
ag1631
aS'Red Mana Battery'
p3596
ag1716
ag1560
aS'Rebirth'
p3597
ag1717
ag1719
ag1607
aS'Tempest Efreet'
p3598
ag1721
ag1563
ag1722
ag1723
ag1725
ag3304
ag1697
ag1634
ag1819
ag1570
ag1559
ag1558
ag1732
ag1577
ag2592
ag1579
ag3290
ag1825
ag1584
ag3306
ag1735
ag1736
ag1763
ag1588
ag1738
ag1812
ag1538
aS'Black Mana Battery'
p3599
ag1739
ag1740
ag1815
ag1592
ag1741
aS'White Mana Battery'
p3600
ag1743
aS'Green Mana Battery'
p3601
ag1744
ag1817
ag1746
ag1601
ag1603
ag1756
ag1748
ag1750
ag1751
ag1752
ag1606
ag1753
ag1728
ag1755
ag1611
ag1612
ag1614
ag1758
ag1760
ag1737
ag1618
ag1764
ag1734
aS'Hurr Jackal'
p3602
aS'Blue Mana Battery'
p3603
ag1765
ag946
ag1625
ag3294
ag3309
ag1767
ag942
ag1626
ag1768
ag1769
ag3310
ag1772
ag3297
ag1773
ag1774
ag1776
ag1777
ag1597
ag1778
ag2597
ag1548
ag1827
aS'Cosmic Horror'
p3604
ag1783
ag1742
ag1637
ag1639
atp3605
Rp3606
sS'Duel Decks: Heroes vs. Monsters'
p3607
g1
((lp3608
g2776
aS'Crater Hellion'
p3609
aS'Deus of Calamity'
p3610
ag2785
aS'Skarrgan Firebird'
p3611
ag1948
ag2968
aS'Anax and Cymede'
p3612
aS'Nobilis of War'
p3613
aS'Winds of Rath'
p3614
atp3615
Rp3616
sS'Khans of Tarkir Promos'
p3617
g1
((lp3618
S'Temur Ascendancy'
p3619
aS'Trap Essence'
p3620
ag2646
aS'Sultai Ascendancy'
p3621
aS'Siege Rhino'
p3622
ag2642
aS'Utter End'
p3623
aS'Villainous Wealth'
p3624
aS'Rattleclaw Mystic'
p3625
aS'Dragon Throne of Tarkir'
p3626
ag1893
aS'Master of Pearls'
p3627
aS'Trail of Mystery'
p3628
ag2647
aS'Ankle Shanker'
p3629
ag2641
aS'Jeskai Ascendancy'
p3630
aS'Dragon-Style Twins'
p3631
aS'Icy Blast'
p3632
ag1890
aS'Rakshasa Vizier'
p3633
aS'Ivorytusk Fortress'
p3634
aS'Crackling Doom'
p3635
aS'Mardu Ascendancy'
p3636
aS'Deflecting Palm'
p3637
aS'Avalanche Tusker'
p3638
aS'Necropolis Fiend'
p3639
ag2796
aS'Dig Through Time'
p3640
ag2645
aS'Sage of the Inward Eye'
p3641
aS'Bloodsoaked Champion'
p3642
aS'Abzan Ascendancy'
p3643
aS"Crater's Claws"
p3644
aS'Kheru Lich Lord'
p3645
aS'Butcher of the Horde'
p3646
atp3647
Rp3648
sS'Duel Decks: Jace vs. Vraska'
p3649
g1
((lp3650
g1195
aS'Ohran Viper'
p3651
aS'Spawnwrithe'
p3652
ag2528
aS'Underworld Connections'
p3653
ag995
aS'Body Double'
p3654
aS'Reaper of the Wilds'
p3655
aS'Aeon Chronicler'
p3656
ag3589
atp3657
Rp3658
sS'Duel Decks: Elspeth vs. Tezzeret'
p3659
g1
((lp3660
g2737
ag1139
ag2003
aS'Catapult Master'
p3661
ag1119
ag2732
ag1174
aS'Master of Etherium'
p3662
aS'Angel of Salvation'
p3663
aS'Rustic Clachan'
p3664
atp3665
Rp3666
sS'Planechase'
p3667
g1
((lp3668
g2544
ag2779
aS'Glory of Warfare'
p3669
ag2768
ag1912
atp3670
Rp3671
sS'Scars of Mirrodin Promos'
p3672
g1
((lp3673
g3575
aS'Memoricide'
p3674
aS'Tempered Steel'
p3675
atp3676
Rp3677
sS"Journey into Nyx Hero's Path"
p3678
g1
((lp3679
S'Hall of Triumph'
p3680
atp3681
Rp3682
sS'Legions'
p3683
g1
((lp3684
S'Glowrider'
p3685
aS'Ghastly Remains'
p3686
aS'Drinker of Sorrow'
p3687
aS'Hollow Specter'
p3688
aS'Havoc Demon'
p3689
ag760
aS'Feral Throwback'
p3690
ag205
aS'Elvish Soultiller'
p3691
ag2742
atp3692
Rp3693
sS'Born of the Gods Promos'
p3694
g1
((lp3695
g2413
aS'Tromokratis'
p3696
aS'Pain Seer'
p3697
ag2417
aS'Arbiter of the Ideal'
p3698
aS'Nessian Wilds Ravager'
p3699
aS'Silent Sentinel'
p3700
ag2424
atp3701
Rp3702
sS'DCI Legend Membership'
p3703
g1
((lp3704
S'Incinerate'
p3705
aS'Counterspell'
p3706
atp3707
Rp3708
sS'Dark Ascension'
p3709
g1
((lp3710
S'Flayer of the Hatebound'
p3711
aS"Grafdigger's Cage"
p3712
aS"Geralf's Messenger"
p3713
aS'S\xc3\xa9ance'
p3714
aS'Fiend of the Shadows'
p3715
ag3183
ag310
aS'Feed the Pack'
p3716
aS'Havengul Runebinder'
p3717
aS'Dungeon Geists'
p3718
aS'Grim Backwoods'
p3719
aS"Geralf's Mindcrusher"
p3720
aS'Ghoultree'
p3721
atp3722
Rp3723
sS'Archenemy'
p3724
g1
((lp3725
g93
ag1850
ag1912
ag1166
ag1492
ag2989
atp3726
Rp3727
sS'Mirage'
p3728
g1
((lp3729
S'Frenetic Efreet'
p3730
aS'Hall of Gemstone'
p3731
ag1561
ag1615
ag1556
aS'Forsaken Wastes'
p3732
aS'Hivis of the Scale'
p3733
ag1537
ag1539
aS'Emberwilde Djinn'
p3734
ag1627
aS'Grim Feast'
p3735
aS'Energy Bolt'
p3736
aS'Hakim, Loreweaver'
p3737
ag1587
aS'Harbinger of Night'
p3738
aS'Emberwilde Caliph'
p3739
aS'Energy Vortex'
p3740
atp3741
Rp3742
sS'Tempest'
p3743
g1
((lp3744
S'Earthcraft'
p3745
aS'Altar of Dementia'
p3746
aS'Grindstone'
p3747
aS'Flowstone Sculpture'
p3748
aS'Elven Warhounds'
p3749
aS'Furnace of Rath'
p3750
aS'Echo Chamber'
p3751
aS'Hand to Hand'
p3752
aS'Eladamri, Lord of Leaves'
p3753
aS"Gerrard's Battle Cry"
p3754
aS'Humility'
p3755
aS"Ertai's Meddling"
p3756
aS'Field of Souls'
p3757
aS'Fugitive Druid'
p3758
aS'Emmessi Tome'
p3759
aS"Fool's Tome"
p3760
aS'Energizer'
p3761
aS'Escaped Shapeshifter'
p3762
aS'Emerald Medallion'
p3763
aS"Hanna's Custody"
p3764
aS'Duplicity'
p3765
aS'Heartwood Giant'
p3766
aS"Eladamri's Vineyard"
p3767
aS'Flowstone Wyvern'
p3768
aS'Helm of Possession'
p3769
aS'Extinction'
p3770
aS'Fevered Convulsions'
p3771
atp3772
Rp3773
sS'Judge Gift Cards 2010'
p3774
g1
((lp3775
S'Phyrexian Dreadnought'
p3776
aS'Morphling'
p3777
aS'Land Tax'
p3778
aS'Natural Order'
p3779
ag484
aS'Thawing Glaciers'
p3780
aS'Wasteland'
p3781
ag481
atp3782
Rp3783
sS'Judge Gift Cards 2011'
p3784
g1
((lp3785
S'Sword of Fire and Ice'
p3786
ag1936
ag3540
ag424
aS'Vendilion Clique'
p3787
aS'Bitterblossom'
p3788
ag2531
ag16
atp3789
Rp3790
sS'Judge Gift Cards 2012'
p3791
g1
((lp3792
g7
aS'Flusterstorm'
p3793
aS'Command Tower'
p3794
aS'Sword of Light and Shadow'
p3795
aS'Karmic Guide'
p3796
aS'Sneak Attack'
p3797
aS'Xiahou Dun, the One-Eyed'
p3798
ag263
atp3799
Rp3800
sS'Judge Gift Cards 2013'
p3801
g1
((lp3802
g2304
ag364
ag2723
aS'Bribery'
p3803
aS'Show and Tell'
p3804
aS'Swords to Plowshares'
p3805
ag473
ag267
atp3806
Rp3807
sS'Judge Gift Cards 2014'
p3808
g1
((lp3809
g2504
aS'Force of Will'
p3810
ag2502
ag2505
aS'Karador, Ghost Chieftain'
p3811
aS'Nekusar, the Mindrazer'
p3812
ag2501
ag2814
ag2806
ag2503
aS'Oloro, Ageless Ascetic'
p3813
ag2278
atp3814
Rp3815
sS'Judge Gift Cards 2015'
p3816
g1
((lp3817
g358
aS'Feldon of the Third Path'
p3818
ag404
ag1922
aS'Damnation'
p3819
ag3781
ag3032
aS'Shardless Agent'
p3820
atp3821
Rp3822
sS'Judge Gift Cards 2016'
p3823
g1
((lp3824
S'Zur the Enchanter'
p3825
aS'Azusa, Lost but Seeking'
p3826
aS'Command Beacon'
p3827
aS'Mana Drain'
p3828
aS'Defense of the Heart'
p3829
ag396
ag2293
atp3830
Rp3831
sS'Judge Gift Cards 2017'
p3832
g1
((lp3833
S'Spellskite'
p3834
ag240
aS'Capture of Jingzhou'
p3835
aS'Homeward Path'
p3836
ag12
ag759
atp3837
Rp3838
sS'Judge Gift Cards 2018'
p3839
g1
((lp3840
g712
ag685
ag2348
aS"Commander's Sphere"
p3841
aS'Merchant Scroll'
p3842
ag181
atp3843
Rp3844
sS'Anthologies'
p3845
g1
((lp3846
g1544
ag1599
atp3847
Rp3848
sS'Planeshift'
p3849
g1
((lp3850
g2771
aS'Forsaken City'
p3851
aS"Eladamri's Call"
p3852
aS'Ertai, the Corrupted'
p3853
aS'Goblin Game'
p3854
atp3855
Rp3856
sS'Explorers of Ixalan'
p3857
g1
((lp3858
S'Shielded by Faith'
p3859
aS'Aether Gale'
p3860
ag3257
aS'Blatant Thievery'
p3861
ag1153
ag1133
aS'Soul of the Harvest'
p3862
ag285
ag1176
ag1924
aS'Shared Animosity'
p3863
aS'Aggravated Assault'
p3864
ag2773
ag1106
ag2945
atp3865
Rp3866
sS'Beatdown Box Set'
p3867
g1
((lp3868
g1422
ag494
atp3869
Rp3870
sS'Eighth Edition'
p3871
g1
((lp3872
g1471
ag1363
ag1364
ag1366
ag1068
aS'Brass Herald'
p3873
ag3029
ag1412
aS'Skull of Orm'
p3874
ag1371
ag1373
ag1374
ag2768
ag3365
ag917
ag1074
ag1415
ag1381
ag1384
ag1089
ag1387
aS'Warped Devotion'
p3875
ag1388
ag2771
ag3550
ag1389
ag1417
aS'Noble Purpose'
p3876
ag1392
aS'Shifting Sky'
p3877
aS'Collective Unconscious'
p3878
aS'Balance of Power'
p3879
aS'Murderous Betrayal'
p3880
ag2779
aS"Thieves' Auction"
p3881
ag541
ag1422
aS'Planar Portal'
p3882
ag3371
aS'Avatar of Hope'
p3883
ag3373
ag3374
ag142
aS"Urza's Armor"
p3884
ag1099
ag1406
ag1408
aS'Call of the Wild'
p3885
aS'Death Pit Offering'
p3886
ag1409
ag1358
ag1411
aS'Vexing Arcanix'
p3887
ag3376
ag1390
ag956
ag1438
ag1420
aS'Fungusaur'
p3888
aS'Lava Hounds'
p3889
ag2782
ag1423
ag509
aS'Distorting Lens'
p3890
aS'Searing Wind'
p3891
ag1426
ag1453
ag144
ag3393
ag1431
ag2769
ag1432
ag1079
aS'Sage of Lat-Nam'
p3892
ag3380
ag3016
aS'Coastal Piracy'
p3893
ag3382
ag1436
ag1437
ag2778
ag1104
ag2774
aS'Primeval Force'
p3894
ag1073
ag3040
ag1442
ag3387
ag529
ag1443
aS'Vampiric Spirit'
p3895
ag1444
ag1210
ag1430
ag1445
ag3388
ag1991
ag3389
ag3375
ag1449
ag1450
ag1451
ag1452
aS'Intruder Alarm'
p3896
ag1969
ag3803
ag2338
ag3396
ag1455
ag1456
ag150
atp3897
Rp3898
sS'Release Events'
p3899
g1
((lp3900
g494
aS'Hedge Troll'
p3901
aS'Ghost-Lit Raider'
p3902
aS'Gruul Guildmage'
p3903
atp3904
Rp3905
sS'Oath of the Gatewatch'
p3906
g1
((lp3907
g3321
ag3344
ag3332
ag3333
ag3324
ag3320
ag3348
ag3337
ag3351
atp3908
Rp3909
sS'Friday Night Magic 2014'
p3910
g1
((lp3911
S'Banisher Priest'
p3912
aS'Magma Spray'
p3913
aS'Encroaching Wastes'
p3914
aS"Warleader's Helix"
p3915
aS'Banishing Light'
p3916
aS'Bile Blight'
p3917
aS'Elvish Mystic'
p3918
aS'Fanatic of Xenagos'
p3919
aS'Stoke the Flames'
p3920
aS'Brain Maggot'
p3921
aS'Dissolve'
p3922
aS'Tormented Hero'
p3923
atp3924
Rp3925
sS'Vintage Championship'
p3926
g1
((lp3927
S'Mox Jet'
p3928
aS'Time Walk'
p3929
aS'Timetwister'
p3930
aS'Mox Ruby'
p3931
aS'Mox Sapphire'
p3932
aS'Black Lotus'
p3933
aS'Ancestral Recall'
p3934
aS'Mox Emerald'
p3935
aS'Mox Pearl'
p3936
atp3937
Rp3938
sS'Worldwake'
p3939
g1
((lp3940
S'Harabaz Druid'
p3941
aS'Goliath Sphinx'
p3942
atp3943
Rp3944
sS'Duel Decks: Elves vs. Goblins'
p3945
g1
((lp3946
g3369
aS'Skirk Fire Marshal'
p3947
aS'Ib Halfheart, Goblin Tactician'
p3948
aS'Voice of the Woods'
p3949
aS'Clickslither'
p3950
aS'Allosaurus Rider'
p3951
aS'Ambush Commander'
p3952
ag1093
atp3953
Rp3954
sS'BFZ Standard Series'
p3955
g1
((lp3956
g3504
ag3498
ag3489
ag3506
ag3508
atp3957
Rp3958
sS'Wizards Play Network 2009'
p3959
g1
((lp3960
S'Kor Duelist'
p3961
aS'Mind Control'
p3962
aS'Rise from the Grave'
p3963
aS'Hellspark Elemental'
p3964
aS"Marisi's Twinclaws"
p3965
aS'Vampire Nighthawk'
p3966
ag2088
aS'Slave of Bolas'
p3967
atp3968
Rp3969
sS'Wizards Play Network 2008'
p3970
g1
((lp3971
S'Woolly Thoctar'
p3972
aS'Sprouting Thrinax'
p3973
atp3974
Rp3975
sS'Magic Player Rewards 2007'
p3976
g1
((lp3977
g1437
aS'Recollect'
p3978
ag783
ag700
aS'Mortify'
p3979
aS'Cruel Edict'
p3980
aS'Condemn'
p3981
atp3982
Rp3983
sS'Magic Player Rewards 2006'
p3984
g1
((lp3985
S'Hinder'
p3986
aS'Zombify'
p3987
aS'Pyroclasm'
p3988
ag1086
aS'Putrefy'
p3989
aS'Lightning Helix'
p3990
ag2002
atp3991
Rp3992
sS'Magic Player Rewards 2005'
p3993
g1
((lp3994
S'Reciprocate'
p3995
aS'Oxidize'
p3996
aS'Psychatog'
p3997
aS'Terror'
p3998
aS'Mana Leak'
p3999
aS'Fireball'
p4000
atp4001
Rp4002
sS'Magic Player Rewards 2004'
p4003
g1
((lp4004
S'Powder Keg'
p4005
atp4006
Rp4007
sS'Magic Player Rewards 2003'
p4008
g1
((lp4009
g800
atp4010
Rp4011
sS'Magic Player Rewards 2002'
p4012
g1
((lp4013
g3781
ag2003
atp4014
Rp4015
sS'Magic Player Rewards 2001'
p4016
g1
((lp4017
g3781
atp4018
Rp4019
sS'Magic Player Rewards 2009'
p4020
g1
((lp4021
S'Nameless Inversion'
p4022
aS'Remove Soul'
p4023
aS'Terminate'
p4024
aS'Unmake'
p4025
aS'Flame Javelin'
p4026
ag1968
aS'Rampant Growth'
p4027
ag288
aS'Blightning'
p4028
atp4029
Rp4030
sS'Magic Player Rewards 2008'
p4031
g1
((lp4032
S'Ponder'
p4033
aS'Mana Tithe'
p4034
aS'Tidings'
p4035
aS'Incinerate'
p4036
aS'Harmonize'
p4037
ag3819
ag2404
atp4038
Rp4039
sS'Masters 25'
p4040
g1
((lp4041
S'Rest in Peace'
p4042
aS'Reef Worm'
p4043
ag2366
ag754
ag1348
ag146
aS'Flash'
p4044
aS'Sundering Titan'
p4045
ag1660
ag759
aS"Laquatus's Champion"
p4046
aS'Darien, King of Kjeldor'
p4047
aS'Mikokoro, Center of the Sea'
p4048
aS'Cascade Bluffs'
p4049
ag88
ag774
ag2304
aS'Ratcatcher'
p4050
aS'Conflux'
p4051
aS'Grenzo, Dungeon Warden'
p4052
aS'Luminarch Ascension'
p4053
ag2312
aS'Brion Stoutarm'
p4054
ag3032
ag3002
ag3826
ag2021
ag2778
aS'Fortune Thief'
p4055
ag260
aS'Courser of Kruphix'
p4056
aS"Blue Sun's Zenith"
p4057
ag1274
ag2999
ag3155
ag147
ag961
ag1091
ag246
aS'Vesuvan Shapeshifter'
p4058
aS'Eidolon of the Great Revel'
p4059
ag2814
ag3852
ag1073
ag1969
ag3394
aS'Twilight Mire'
p4060
ag1677
aS'Rugged Prairie'
p4061
ag3083
ag3579
ag1974
ag1975
atp4062
Rp4063
sS'Vintage Masters'
p4064
g1
((lp4065
S'Zhalfirin Crusader'
p4066
aS'Drakestown Forgotten'
p4067
ag455
aS'Rofellos, Llanowar Emissary'
p4068
aS'Flowstone Sculpture'
p4069
aS'Burning of Xinye'
p4070
ag460
aS'Ring of Gix'
p4071
aS'Palinchron'
p4072
aS'Baleful Force'
p4073
ag267
ag3586
aS"Council's Judgment"
p4074
ag3609
ag2355
aS"Volrath's Shapeshifter"
p4075
aS'Rorix Bladewing'
p4076
ag4052
aS"Nature's Ruin"
p4077
aS'Goblin Lackey'
p4078
aS'Spirit Mirror'
p4079
ag24
aS'Baleful Strix'
p4080
ag303
ag682
ag401
ag479
aS"Dack's Duplicate"
p4081
aS'Null Rod'
p4082
ag398
aS'Magister of Worth'
p4083
ag3023
ag377
ag3780
ag2360
aS'Cruel Bargain'
p4084
ag489
aS'Predator, Flagship'
p4085
ag387
ag493
ag584
ag147
ag3796
ag2324
ag388
aS'Spirit Cairn'
p4086
aS'Sphere of Resistance'
p4087
aS'Realm Seekers'
p4088
aS'Recurring Nightmare'
p4089
aS'Lake of the Dead'
p4090
ag3810
aS'Plea for Power'
p4091
aS'Stroke of Genius'
p4092
ag260
aS'Crovax the Cursed'
p4093
ag3007
aS'Lightning Dragon'
p4094
ag4046
aS'Worldgorger Dragon'
p4095
ag3069
aS'Berserk'
p4096
ag2803
ag3074
aS'Smokestack'
p4097
ag2367
ag515
ag405
ag2348
ag407
ag408
aS'Keldon Necropolis'
p4098
aS"Gerrard's Battle Cry"
p4099
aS'Brago, King Eternal'
p4100
ag543
aS"Nevinyrral's Disk"
p4101
ag3614
ag3950
ag3079
aS'Ichorid'
p4102
aS'Karn, Silver Golem'
p4103
ag2337
aS'Norwood Priestess'
p4104
ag2010
aS'Ankh of Mishra'
p4105
ag2012
aS'Cursed Scroll'
p4106
aS'Silvos, Rogue Elemental'
p4107
aS'Reign of the Pit'
p4108
ag3026
aS'Selvala, Explorer Returned'
p4109
ag3589
aS'Shivan Wurm'
p4110
aS'Ephemeron'
p4111
ag536
aS'Gigapede'
p4112
ag2325
ag3793
aS'Yavimaya Hollow'
p4113
ag3560
ag459
aS'Grand Coliseum'
p4114
ag681
aS'Academy Elite'
p4115
aS'Crescendo of War'
p4116
aS'Kongming, "Sleeping Dragon"'
p4117
atp4118
Rp4119
sS'Magic 2015 Promos'
p4120
g1
((lp4121
g1053
ag1018
ag1030
ag1009
ag1048
ag1029
ag1013
ag1035
atp4122
Rp4123
sS'Duel Decks Anthology: Elves vs. Goblins'
p4124
g1
((lp4125
g3369
ag3947
ag3948
ag3949
ag3950
ag3951
ag3952
ag1093
atp4126
Rp4127
sS'Pro Tour Promos'
p4128
g1
((lp4129
g261
ag7
ag145
ag3079
ag278
atp4130
Rp4131
sS'Commander 2011 Oversized'
p4132
g1
((lp4133
S'Numot, the Devastator'
p4134
aS'Oros, the Avenger'
p4135
ag3525
aS'Intet, the Dreamer'
p4136
aS'Teneb, the Harvester'
p4137
atp4138
Rp4139
sS'Portal'
p4140
g1
((lp4141
S'Forked Lightning'
p4142
aS'Fire Tempest'
p4143
aS'Gift of Estates'
p4144
aS'Fire Dragon'
p4145
aS'Endless Cockroaches'
p4146
aS'Final Strike'
p4147
aS'Harsh Justice'
p4148
aS'Ebon Dragon'
p4149
ag1558
ag2379
atp4150
Rp4151
sS'Coldsnap'
p4152
g1
((lp4153
S"Hibernation's End"
p4154
aS'Haakon, Stromgald Scourge'
p4155
aS'Garza Zol, Plague Queen'
p4156
ag2797
aS"Garza's Assassin"
p4157
aS'Herald of Leshrac'
p4158
ag2747
aS'Heidar, Rimewind Master'
p4159
atp4160
Rp4161
sS'Duel Decks: Elspeth vs. Kiora'
p4162
g1
((lp4163
g1665
ag1084
aS'Simic Sky Swallower'
p4164
aS'Scourge of Fleets'
p4165
ag260
aS'Whelming Wave'
p4166
aS'Dictate of Heliod'
p4167
aS'Gustcloak Savior'
p4168
ag1916
ag1802
atp4169
Rp4170
sS'Journey into Nyx'
p4171
g1
((lp4172
S'Temple of Epiphany'
p4173
ag4165
aS'Hypnotic Siren'
p4174
aS'Deicide'
p4175
aS'Dictate of Karametra'
p4176
aS'Launch the Fleet'
p4177
aS'Pheres-Band Warchief'
p4178
aS'Dictate of the Twin Gods'
p4179
aS'Twinflame'
p4180
aS'Setessan Tactics'
p4181
aS"Heroes' Bane"
p4182
aS'Dictate of Kruphix'
p4183
aS'Hydra Broodmaster'
p4184
ag4167
aS'Harness by Force'
p4185
aS'Temple of Malady'
p4186
aS'Skybind'
p4187
aS'King Macar, the Gold-Cursed'
p4188
ag3680
aS'Dawnbringer Charioteers'
p4189
aS'Master of the Feast'
p4190
aS'Silence the Believers'
p4191
aS'Daring Thief'
p4192
aS'Doomwake Giant'
p4193
aS'Battlefield Thaumaturge'
p4194
aS'Mana Confluence'
p4195
aS'Spawn of Thraxes'
p4196
aS'Bearer of the Heavens'
p4197
ag4059
aS'Aegis of the Gods'
p4198
aS'Revel of the Fallen God'
p4199
aS'Polymorphous Rush'
p4200
aS'Eidolon of Blossoms'
p4201
aS'Extinguish All Hope'
p4202
aS'Dictate of Erebos'
p4203
atp4204
Rp4205
sS'Journey into Nyx Promos'
p4206
g1
((lp4207
g4179
ag4193
ag4165
ag4182
ag4189
ag4183
ag4196
ag4201
atp4208
Rp4209
sS'Onslaught'
p4210
g1
((lp4211
S'Ebonblade Reaper'
p4212
aS'Grand Melee'
p4213
aS'Gangrenous Goliath'
p4214
ag2734
aS'Gravespawn Sovereign'
p4215
aS'Harsh Mercy'
p4216
ag2358
aS'False Cure'
p4217
aS'Glarecaster'
p4218
ag3067
aS'Entrails Feaster'
p4219
ag4168
aS"Enchantress's Presence"
p4220
aS'Goblin Pyromancer'
p4221
ag3589
ag4112
ag584
ag4114
aS'Endemic Plague'
p4222
ag2494
ag2313
aS'Elvish Vanguard'
p4223
aS'Grinning Demon'
p4224
atp4225
Rp4226
sS'Fate Reforged Clash Pack'
p4227
g1
((lp4228
g3621
ag2454
ag3639
ag4056
ag3655
aS'Whip of Erebos'
p4229
atp4230
Rp4231
sS'Mirrodin Besieged'
p4232
g1
((lp4233
S'Hellkite Igniter'
p4234
ag3585
aS'Galvanoth'
p4235
atp4236
Rp4237
sS'Stronghold'
p4238
g1
((lp4239
S'Horn of Greed'
p4240
aS'Ensnaring Bridge'
p4241
aS'Hermit Druid'
p4242
aS'Grave Pact'
p4243
aS'Evacuation'
p4244
aS'Flowstone Mauler'
p4245
aS'Hidden Retreat'
p4246
atp4247
Rp4248
sS'Rise of the Eldrazi Promos'
p4249
g1
((lp4250
g2951
aS'Staggershock'
p4251
ag2935
ag2961
aS'Emrakul, the Aeons Torn'
p4252
atp4253
Rp4254
sS"Commander's Arsenal Oversized"
p4255
g1
((lp4256
g3825
ag3826
aS'Sliver Queen'
p4257
ag669
ag4103
ag4054
atp4258
Rp4259
sS'Commander Anthology'
p4260
g1
((lp4261
g1185
aS'Wretched Confluence'
p4262
ag1251
ag2525
aS'Wolfbriar Elemental'
p4263
aS'Cloudthresher'
p4264
aS"Kirtar's Wrath"
p4265
ag3060
ag4057
aS'Fresh Meat'
p4266
ag2760
aS'Bonehoard'
p4267
ag2917
aS"Conjurer's Closet"
p4268
aS'Dread Cacodemon'
p4269
aS'Masked Admirers'
p4270
aS'Sylvan Offering'
p4271
aS'Viridian Zealot'
p4272
aS'Mirror Entity'
p4273
aS'Lifeblood Hydra'
p4274
aS'Oran-Rief, the Vastwood'
p4275
ag1082
ag682
aS'Scourge of Nel Toth'
p4276
aS'Sever the Bloodline'
p4277
aS'Wave of Vitriol'
p4278
aS'Stranglehold'
p4279
aS'Phantom Nantuko'
p4280
aS'Djinn of Infinite Deceits'
p4281
ag3878
ag2424
aS'Emerald Medallion'
p4282
aS'Whirlwind'
p4283
aS'Unexpectedly Absent'
p4284
aS"Wolfcaller's Howl"
p4285
aS'Kessig Cagebreakers'
p4286
ag4085
ag2957
ag3263
ag441
ag3796
aS'Lu Xun, Scholar General'
p4287
aS'Dread Summons'
p4288
aS'Creeperhulk'
p4289
ag150
aS'Azami, Lady of Scrolls'
p4290
ag318
aS'Song of the Dryads'
p4291
aS"Wren's Run Packmaster"
p4292
ag2540
aS'Archangel of Strife'
p4293
ag1422
ag1800
aS'Mana-Charged Dragon'
p4294
ag4135
ag1801
ag1072
ag3718
ag3862
aS'Angel of Finality'
p4295
aS'Thousand-Year Elixir'
p4296
aS'Akroma, Angel of Fury'
p4297
aS'Thunderfoot Baloth'
p4298
ag340
aS'Beastmaster Ascension'
p4299
ag1260
aS'Tempt with Glory'
p4300
aS'Murkfiend Liege'
p4301
aS'Sword of the Paruns'
p4302
aS'Grave Sifter'
p4303
aS'Avatar of Slaughter'
p4304
ag280
aS'Siege Behemoth'
p4305
aS'Immaculate Magistrate'
p4306
ag2461
ag1850
aS'Bane of Progress'
p4307
ag309
ag1140
ag1225
aS'Centaur Vinecrasher'
p4308
ag3719
ag2561
aS'Angel of Despair'
p4309
aS"Surveyor's Scope"
p4310
aS'Tornado Elemental'
p4311
ag1100
aS'Bloodspore Thrinax'
p4312
ag3083
ag1476
aS'Pathbreaker Ibex'
p4313
ag1144
atp4314
Rp4315
sS'Deckmasters'
p4316
g1
((lp4317
g419
aS'Balduvian Horde'
p4318
ag1439
ag1440
aS'Jokulhaups'
p4319
ag398
ag1425
ag3550
aS'Giant Trap Door Spider'
p4320
atp4321
Rp4322
sS'Core Set 2019'
p4323
g1
((lp4324
S'Dismissive Pyromancer'
p4325
ag1911
aS'Mystic Archaeologist'
p4326
aS'Graveyard Marshal'
p4327
aS'Demon of Catastrophes'
p4328
aS'Pelakka Wurm'
p4329
aS'Supreme Phantom'
p4330
aS"Ajani's Influence"
p4331
aS'Cleansing Nova'
p4332
aS'Patient Rebuilding'
p4333
aS"Sarkhan's Dragonfire"
p4334
aS'Fraying Omnipotence'
p4335
aS'Gigantosaurus'
p4336
aS'One with the Machine'
p4337
aS'Elvish Clancaller'
p4338
aS'Amulet of Safekeeping'
p4339
aS"Magistrate's Scepter"
p4340
aS'Spit Flame'
p4341
aS'Sigiled Sword of Valeron'
p4342
aS'Remorseful Cleric'
p4343
aS'Skalla Wolf'
p4344
aS'Lena, Selfless Champion'
p4345
aS"Liliana's Contract"
p4346
aS'Riddlemaster Sphinx'
p4347
aS'Valiant Knight'
p4348
aS'Infernal Reckoning'
p4349
ag1855
aS'Lathliss, Dragon Queen'
p4350
aS'Dark-Dweller Oracle'
p4351
aS"Vivien's Invocation"
p4352
ag1137
aS'Isareth the Awakener'
p4353
aS'Goblin Trashmaster'
p4354
aS'Transmogrifying Wand'
p4355
aS'Open the Graves'
p4356
aS"Ajani's Last Stand"
p4357
aS'Chaos Wand'
p4358
aS"Sarkhan's Unsealing"
p4359
aS'Desecrated Tomb'
p4360
aS'Isolate'
p4361
aS'Sai, Master Thopterist'
p4362
aS'Runic Armasaur'
p4363
aS'Gravewaker'
p4364
aS'Thorn Lieutenant'
p4365
aS"Dragon's Hoard"
p4366
aS'Demanding Dragon'
p4367
aS"Serra's Guardian"
p4368
aS'Windreader Sphinx'
p4369
aS'Mistcaller'
p4370
aS"Liliana's Spoils"
p4371
aS"Tezzeret's Gatebreaker"
p4372
aS'Detection Tower'
p4373
aS'Leonin Warleader'
p4374
ag529
aS'Hungering Hydra'
p4375
aS'Suncleanser'
p4376
ag1080
aS'Death Baron'
p4377
aS'Aggressive Mammoth'
p4378
aS'Metamorphic Alteration'
p4379
aS'Alpine Moon'
p4380
aS'Prodigious Growth'
p4381
aS'Goreclaw, Terror of Qal Sisma'
p4382
atp4383
Rp4384
sS'Eldritch Moon'
p4385
g1
((lp4386
S'Docent of Perfection // Final Iteration'
p4387
aS'Hanweir Battlements'
p4388
aS'Wharf Infiltrator'
p4389
aS'Imprisoned in the Moon'
p4390
aS'Bedlam Reveler'
p4391
aS'Bruna, the Fading Light'
p4392
aS'Mausoleum Wanderer'
p4393
aS'Providence'
p4394
aS'Sanctifier of Souls'
p4395
aS"Thalia's Lancers"
p4396
aS"Emrakul's Evangel"
p4397
aS'Summary Dismissal'
p4398
aS'Hanweir Garrison'
p4399
aS'Hanweir, the Writhing Township'
p4400
aS'Spirit of the Hunt'
p4401
aS'Voldaren Pariah // Abolisher of Bloodlines'
p4402
aS'Oath of Liliana'
p4403
aS'Distended Mindbender'
p4404
aS'Eternal Scourge'
p4405
aS'Stromkirk Occultist'
p4406
aS"Heron's Grace Champion"
p4407
aS'Coax from the Blind Eternities'
p4408
aS'Elder Deep-Fiend'
p4409
aS'Spell Queller'
p4410
aS'Geier Reach Sanitarium'
p4411
aS'Permeating Mass'
p4412
aS'Thalia, Heretic Cathar'
p4413
aS'Soul Separator'
p4414
aS'Lupine Prototype'
p4415
aS'Ulvenwald Observer'
p4416
aS'Collective Effort'
p4417
aS'Collective Defiance'
p4418
aS'Impetuous Devils'
p4419
aS'Dark Salvation'
p4420
ag2286
aS'Identity Thief'
p4421
aS'Splendid Reclamation'
p4422
aS'Harmless Offering'
p4423
aS'Eldritch Evolution'
p4424
aS"Sigarda's Aid"
p4425
aS'Assembled Alphas'
p4426
aS'Cryptbreaker'
p4427
aS'Niblis of Frost'
p4428
aS'Bloodhall Priest'
p4429
aS'Selfless Spirit'
p4430
aS'Stromkirk Condemned'
p4431
aS"Stitcher's Graft"
p4432
aS'Collective Brutality'
p4433
atp4434
Rp4435
sS'Eldritch Moon Promos'
p4436
g1
((lp4437
g4387
ag4388
ag4389
ag4390
ag4391
ag4392
ag4393
ag4394
ag4395
ag4396
ag4397
ag4398
ag4399
ag4400
ag4401
ag4402
ag4403
ag4404
ag4405
ag4406
ag4407
ag4408
ag4409
ag4410
ag4411
ag4412
ag4413
ag4414
ag4415
ag4416
ag4417
ag4418
ag4419
ag4420
ag2286
ag4421
ag4422
ag4423
ag4424
ag4425
ag4426
ag4427
ag4428
ag4429
ag4430
ag4431
ag4432
ag4433
atp4438
Rp4439
sS'Premium Deck Series: Fire and Lightning'
p4440
g1
((lp4441
S'Jaya Ballard, Task Mage'
p4442
ag2338
ag1948
ag1091
ag1124
ag1156
atp4443
Rp4444
sS'Collectors\xe2\x80\x99 Edition'
p4445
g1
((lp4446
g1694
ag1695
ag1696
ag1698
ag1699
ag1565
ag1700
ag1701
ag1702
ag1703
ag1544
ag1781
ag2603
ag2617
ag1705
ag1706
ag2604
ag1707
ag1708
ag1728
ag1753
ag1710
ag2605
ag1552
ag1554
ag1716
ag1721
ag1558
ag2606
ag1559
ag1560
ag2607
ag2608
ag1597
ag1718
ag2610
ag1720
ag1563
ag1722
ag1723
ag1724
ag1725
ag1726
ag1697
ag1709
ag2611
ag1729
ag1730
ag1731
ag1577
ag1759
ag1611
ag1733
ag2612
ag1734
ag1601
ag1737
ag1588
ag1738
ag1607
ag1739
ag1740
ag1592
ag1538
ag1742
ag1732
ag2613
ag1736
ag2614
ag1746
ag1747
ag1603
ag2609
ag1749
ag1751
ag1606
ag1778
ag2615
ag1754
ag1755
ag1756
ag1757
ag1614
ag1758
ag2616
ag1760
ag1761
ag1762
ag1763
ag1618
ag1765
ag1625
ag1766
ag1767
ag1626
ag1768
ag1769
ag1770
ag2618
ag1772
ag2619
ag1773
ag2620
ag1748
ag1774
ag1775
ag1776
ag1735
ag1750
ag2621
ag1779
ag1780
ag2622
ag1782
ag1637
ag2623
ag1639
atp4447
Rp4448
sS'Magic 2015 Clash Pack'
p4449
g1
((lp4450
S'Temple of Mystery'
p4451
ag2414
ag4184
aS'Prophet of Kruphix'
p4452
aS'Font of Fertility'
p4453
ag1918
atp4454
Rp4455
sS'The Dark'
p4456
g1
((lp4457
S'Goblin Wizard'
p4458
aS'Exorcist'
p4459
aS'Hidden Path'
p4460
aS'Eternal Flame'
p4461
aS'Grave Robbers'
p4462
aS"Frankenstein's Monster"
p4463
atp4464
Rp4465
sS'Dragon Con'
p4466
g1
((lp4467
S'Nalathni Dragon'
p4468
atp4469
Rp4470
sS'Duel Decks: Jace vs. Chandra'
p4471
g1
((lp4472
g2695
ag2696
ag2697
ag2698
ag2699
ag2700
atp4473
Rp4474
sS'World Championship Decks 1999'
p4475
g1
((lp4476
S"Gaea's Cradle"
p4477
aS'Wildfire'
p4478
ag1622
ag1594
ag1628
ag4106
ag1627
aS"Volrath's Stronghold"
p4479
aS'Persecute'
p4480
ag1323
ag1301
aS'Masticore'
p4481
aS'City of Traitors'
p4482
aS'Hatred'
p4483
aS'Covetous Dragon'
p4484
ag143
aS'Powder Keg'
p4485
ag1336
ag3031
aS'Sphere of Resistance'
p4486
aS'Corpse Dance'
p4487
ag4103
aS'Phyrexian Negator'
p4488
aS"Yawgmoth's Will"
p4489
aS'Temporal Aperture'
p4490
ag1558
aS'Rapid Decay'
p4491
atp4492
Rp4493
sS'Core Set 2019 Promos'
p4494
g1
((lp4495
g4358
ag4325
ag4359
ag4360
ag4361
ag4326
ag4362
ag4328
ag4363
ag4329
ag4330
ag4365
ag4332
ag4366
ag4333
ag4335
ag4336
ag4337
ag1911
ag4339
ag4340
ag4355
ag4369
ag4341
ag4342
ag4343
ag4370
ag4338
ag4373
ag4374
ag4345
ag4346
ag1080
ag1137
ag4348
ag4349
ag1855
ag4350
ag4376
ag4377
ag4351
ag4352
ag4379
ag4375
ag4380
ag4367
ag4354
ag4381
ag4353
ag4356
ag4357
ag4327
ag4382
atp4496
Rp4497
sS'Commander 2011'
p4498
g1
((lp4499
g3066
ag1251
ag3525
aS'Austere Command'
p4500
ag3526
ag2525
aS'Storm Herd'
p4501
ag1255
aS'Acorn Catapult'
p4502
aS'Celestial Force'
p4503
ag2731
ag2760
ag3532
ag2917
ag1992
aS'Hydra Omnivore'
p4504
ag4269
aS'Magus of the Vineyard'
p4505
aS'Chromeshell Crab'
p4506
ag684
ag1162
ag4054
ag2741
ag1082
ag3550
ag2743
ag4136
ag682
ag683
ag2518
ag2779
ag4279
ag2285
ag681
ag3541
ag3542
aS'Trade Secrets'
p4507
ag3652
ag4137
ag261
ag1921
aS'Chain Reaction'
p4508
ag3547
ag147
aS'Prophetic Bolt'
p4509
ag2945
ag3552
ag3836
ag1068
aS"Martyr's Bond"
p4510
ag4293
ag1422
ag4294
ag4135
aS"Champion's Helm"
p4511
ag4164
ag3558
aS'Trench Gorger'
p4512
aS'Insurrection'
p4513
ag4134
ag4297
aS'False Prophet'
p4514
ag3564
aS'Oblation'
p4515
ag1123
ag685
aS'Collective Voyage'
p4516
ag4304
aS'Call the Skybreaker'
p4517
ag2776
ag2010
aS'Reins of Power'
p4518
ag1850
ag309
ag1140
ag3261
aS'Attrition'
p4519
ag2958
ag4309
ag989
aS'Ruination'
p4520
ag1054
ag3571
ag3793
aS'Alliance of Arms'
p4521
ag1280
aS'Dominus of Fealty'
p4522
ag2558
ag3083
ag1476
ag4116
ag997
atp4523
Rp4524
sS'Commander 2013'
p4525
g1
((lp4526
g3718
ag3067
ag3836
ag3079
aS'Endless Cockroaches'
p4527
aS'Fell Shepherd'
p4528
ag441
ag755
aS'Eye of Doom'
p4529
ag2548
aS'Endrek Sahr, Master Breeder'
p4530
ag2561
ag325
ag2934
ag1163
ag4117
aS'Filigree Angel'
p4531
aS'From the Ashes'
p4532
ag3719
ag1446
aS'Hua Tuo, Honored Physician'
p4533
atp4534
Rp4535
sS'Commander 2015'
p4536
g1
((lp4537
S'Aethersnatch'
p4538
ag2567
aS'Gigantoplasm'
p4539
ag1196
ag318
ag2416
ag2697
aS'Grasp of Fate'
p4540
ag3258
ag2421
ag1912
ag2519
ag1873
ag1850
ag880
ag3719
ag3580
aS"Ezuri's Predation"
p4541
ag1082
ag2424
atp4542
Rp4543
sS'Commander 2014'
p4544
g1
((lp4545
g3418
ag3540
aS'Hoverguard Sweepers'
p4546
ag2460
ag3546
aS'Fell the Mighty'
p4547
ag2461
ag1100
aS'Hallowed Spiritkeeper'
p4548
aS'Dulcet Sirens'
p4549
ag1175
ag1489
ag3860
ag1922
ag1903
ag4266
ag1072
ag4303
ag2840
ag4282
aS'Flesh Carver'
p4550
atp4551
Rp4552
sS'Commander 2017'
p4553
g1
((lp4554
S'Outpost Siege'
p4555
aS'Rout'
p4556
aS'Kemba, Kha Regent'
p4557
ag174
ag2476
ag586
ag3653
aS'Blade of the Bloodchief'
p4558
ag1799
ag635
ag184
aS'Black Market'
p4559
ag189
ag3061
ag1082
aS'Argentum Armor'
p4560
aS'Apprentice Necromancer'
p4561
aS'Portal Mage'
p4562
ag1523
ag561
ag562
aS'Serendib Sorcerer'
p4563
ag3654
ag3560
ag4137
aS'Puppeteer Clique'
p4564
aS'Necromantic Selection'
p4565
ag575
ag2716
aS'Anowon, the Ruin Sage'
p4566
aS'Magus of the Abyss'
p4567
ag1142
ag1512
aS'Fist of Suns'
p4568
ag9
ag2759
ag626
ag2475
aS'Divine Reckoning'
p4569
ag220
aS'Raksha Golden Cub'
p4570
ag3556
ag224
ag2009
ag574
aS'Jedit Ojanen of Efrava'
p4571
ag4101
ag685
aS'Scion of the Ur-Dragon'
p4572
aS'Spellbound Dragon'
p4573
ag231
aS'Broodmate Dragon'
p4574
ag2010
aS'Leonin Shikari'
p4575
aS'Mercurial Chemister'
p4576
ag3258
aS'Crucible of the Spirit Dragon'
p4577
ag4547
ag309
ag239
ag3569
aS'Vein Drinker'
p4578
ag990
ag577
ag1476
ag1055
ag170
ag171
ag2926
ag175
ag219
ag223
ag704
ag1017
ag181
aS'Blood Tribute'
p4579
ag1487
ag185
aS'Crux of Fate'
p4580
aS'Niv-Mizzet, Dracogenius'
p4581
ag92
aS'Blind Obedience'
p4582
aS"Seht's Tiger"
p4583
ag200
ag3635
ag2757
ag4136
ag1274
ag199
ag656
aS'Monastery Siege'
p4584
aS'Vindictive Lich'
p4585
aS'Leonin Arbiter'
p4586
aS'Malakir Bloodwitch'
p4587
ag3264
ag2451
ag207
ag3518
ag198
ag196
ag4290
ag214
ag215
ag1836
ag1115
ag958
ag218
ag221
aS'Palace Siege'
p4588
ag1195
ag225
ag3330
aS'Well of Lost Dreams'
p4589
aS'Mosswort Bridge'
p4590
ag195
aS'Memory Plunder'
p4591
ag1492
aS'New Blood'
p4592
ag1920
ag3575
ag242
ag243
ag2947
ag651
aS'Dark Impostor'
p4593
ag1973
ag1858
ag226
ag246
ag222
ag248
ag1114
ag1924
ag1220
atp4594
Rp4595
sS'Commander 2016'
p4596
g1
((lp4597
g3836
ag1838
ag1068
ag217
ag2646
ag1371
aS'Empyrial Plate'
p4598
ag4234
ag669
aS'Glint-Eye Nephilim'
p4599
ag194
ag674
aS'Hoofprints of the Stag'
p4600
ag2642
ag3258
ag129
ag2814
ag681
ag244
ag2828
ag1858
ag4114
ag1912
ag4531
ag2911
ag211
atp4601
Rp4602
sS'Commander 2018'
p4603
g1
((lp4604
S"Enchanter's Bane"
p4605
aS'Prototype Portal'
p4606
aS'Myth Unbound'
p4607
aS"Saheeli's Directive"
p4608
ag2908
ag159
aS'Retrofitter Foundry'
p4609
aS'Entreat the Dead'
p4610
aS'Echo Storm'
p4611
ag4308
aS'Turntimber Sower'
p4612
aS'Ancient Stone Idol'
p4613
ag3614
aS'Boon Satyr'
p4614
ag1123
aS'Coveted Jewel'
p4615
aS'Spawning Grounds'
p4616
ag4234
aS'Thopter Assembly'
p4617
aS'Phyrexian Delver'
p4618
ag1866
ag1168
aS'Epic Proportions'
p4619
ag3254
aS'Sower of Discord'
p4620
aS'Worm Harvest'
p4621
ag3860
aS'Endless Atlas'
p4622
aS'Nesting Dragon'
p4623
ag1947
aS'Decimate'
p4624
aS'Boreas Charger'
p4625
aS"Windgrace's Judgment"
p4626
ag1080
aS'Devastation Tide'
p4627
aS"Nylea's Colossus"
p4628
ag345
ag2955
aS'Crash of Rhino Beetles'
p4629
ag608
ag2533
aS'Ravenous Slime'
p4630
ag3543
ag3700
aS'Blinkmoth Urn'
p4631
ag3538
aS'Mimic Vat'
p4632
aS'Empyrial Storm'
p4633
aS'Finest Hour'
p4634
aS'Darksteel Juggernaut'
p4635
ag992
ag441
aS'Phyrexian Rebirth'
p4636
ag1970
aS'Ever-Watching Threshold'
p4637
aS'Mirrorworks'
p4638
ag1166
ag4201
aS'Creeping Renaissance'
p4639
aS'Isolated Watchtower'
p4640
ag1835
aS'Unwinding Clock'
p4641
aS'Vedalken Humiliator'
p4642
ag2473
aS'Primordial Mist'
p4643
aS'Genesis Storm'
p4644
ag2252
aS'Arixmethes, Slumbering Isle'
p4645
ag3485
ag93
ag1351
aS'Righteous Authority'
p4646
aS'Sharding Sphinx'
p4647
aS'Skull Storm'
p4648
ag3623
aS'Lavalanche'
p4649
aS'Bloodtracker'
p4650
ag340
ag3265
aS'Budoka Gardener // Dokai, Weaver of Life'
p4651
aS'Treasure Nabber'
p4652
aS'Reality Scramble'
p4653
ag1023
ag4183
aS'Octopus Umbra'
p4654
aS'Emissary of Grudges'
p4655
aS'Moldgraf Monstrosity'
p4656
ag4508
ag4590
ag3268
aS"Saheeli's Artistry"
p4657
aS'Terminus'
p4658
ag1930
ag2010
ag3567
aS"Yuriko, the Tiger's Shadow"
p4659
ag2486
ag1851
aS"Estrid's Invocation"
p4660
ag4220
ag3575
ag3719
aS'Whiptongue Hydra'
p4661
ag1802
ag1211
aS'Magus of the Balance'
p4662
aS'Night Incarnate'
p4663
ag1269
aS'Varchild, Betrayer of Kjeldor'
p4664
aS'Daxos of Meletis'
p4665
aS'Heavenly Blademaster'
p4666
aS'Xantcha, Sleeper Agent'
p4667
aS'Fury Storm'
p4668
ag1923
ag572
ag3083
ag3107
aS"Aminatou's Augury"
p4669
atp4670
Rp4671
sS'Portal Demo Game'
p4672
g1
((lp4673
S'Feral Shadow'
p4674
aS'Snapping Drake'
p4675
aS'Bull Hippo'
p4676
aS'Cloud Pirates'
p4677
aS'Storm Crow'
p4678
atp4679
Rp4680
sS'Innistrad Promos'
p4681
g1
((lp4682
g2841
aS'Mayor of Avabruck '
p4683
aS'Mayor of Avabruck // Howlpack Alpha'
p4684
ag307
aS"Ludevic's Test Subject // Ludevic's Abomination"
p4685
atp4686
Rp4687
sS'Amonkhet'
p4688
g1
((lp4689
S'Heaven '
p4690
aS'Failure '
p4691
aS'Prepare '
p4692
aS'Dusk '
p4693
aS'Mouth '
p4694
aS'Commit '
p4695
aS'Insult '
p4696
atp4697
Rp4698
sS'Planar Chaos'
p4699
g1
((lp4700
S'Fatal Frenzy'
p4701
aS"Gaea's Anthem"
p4702
aS'Heroes Remembered'
p4703
ag1971
aS'Boom '
p4704
aS'Fungal Behemoth'
p4705
aS'Dust Elemental'
p4706
aS'Groundbreaker'
p4707
atp4708
Rp4709
sS'Portal Second Age'
p4710
g1
((lp4711
S'Hidden Horror'
p4712
ag1558
ag2379
aS'Goblin General'
p4713
atp4714
Rp4715
sS'Introductory Two-Player Set'
p4716
g1
((lp4717
g3435
ag3436
ag3437
ag3438
ag3439
ag1742
ag3440
ag3441
ag3442
ag3443
ag3444
ag3445
ag3429
ag1607
ag1711
ag3446
ag3447
aS'Scathe Zombies'
p4718
ag3448
ag1552
aS'Phantom Monster'
p4719
ag3449
ag3450
ag3451
ag3452
ag3453
ag3454
ag3455
ag3456
ag933
ag3457
ag1722
ag3458
ag3459
ag3460
ag3461
ag3463
ag3464
ag3462
ag3465
ag3466
ag3467
ag3468
ag1577
ag3469
ag3470
ag3471
ag3472
ag3473
ag3474
ag3475
ag3476
atp4720
Rp4721
sS'Revised Edition'
p4722
g1
((lp4723
g1694
ag1695
ag1696
ag1697
ag1698
ag1699
ag1538
ag1565
ag1700
ag1701
ag1702
ag1703
ag1544
ag1704
ag1546
ag1705
ag1706
ag1707
ag1708
ag1709
ag1710
ag1711
ag1712
ag1552
ag1713
ag1614
ag1554
ag1714
ag1548
ag1715
ag1558
ag1716
ag1560
ag1717
ag1597
ag1718
ag1719
ag1720
ag1721
ag1563
ag1722
ag1723
ag1724
ag1725
ag1726
ag1727
ag1634
ag1728
ag1729
ag1730
ag1731
ag1732
ag1577
ag1579
ag1611
ag1733
ag1584
ag1734
ag1735
ag1736
ag1601
ag1737
ag1588
ag1738
ag1607
ag1631
ag1739
ag1740
ag1592
ag1741
ag1742
ag1743
ag1744
ag1745
ag1746
ag1747
ag1603
ag1748
ag1749
ag1750
ag1751
ag1752
ag1606
ag1753
ag1754
ag1755
ag1756
ag1757
ag1612
ag1559
ag1758
ag1759
ag1760
ag1761
ag1762
ag1763
ag1618
ag1764
ag1765
ag1625
ag1766
ag1767
ag1626
ag1768
ag1769
ag1770
ag1771
ag1772
ag1773
ag1774
ag1775
ag1776
ag1777
ag1778
ag1779
ag1780
ag1781
ag1782
ag1783
ag1637
ag1639
atp4724
Rp4725
sS'Premium Deck Series: Slivers'
p4726
g1
((lp4727
g2474
ag1067
aS'Fungus Sliver'
p4728
aS'Brood Sliver'
p4729
ag1074
atp4730
Rp4731
sS'World Championship Decks 1997'
p4732
g1
((lp4733
g3730
aS'Dystopia'
p4734
ag1620
aS'Heart of Yavimaya'
p4735
ag1632
aS'City of Solitude'
p4736
aS'Thawing Glaciers'
p4737
ag1604
aS'Undiscovered Paradise'
p4738
ag1751
aS'Kjeldoran Outpost'
p4739
aS'Political Trickery'
p4740
ag3732
ag1627
ag1758
aS'Abeyance'
p4741
ag1586
ag1558
ag3288
atp4742
Rp4743
sS'Aether Revolt'
p4744
g1
((lp4745
g814
ag824
ag818
ag838
ag831
ag846
atp4746
Rp4747
sS'World Championship Decks 1998'
p4748
g1
((lp4749
S'Spike Weaver'
p4750
aS'Tradewind Rider'
p4751
ag4741
ag1621
aS'Dwarven Thaumaturgist'
p4752
ag3747
aS'Cursed Scroll'
p4753
aS'Paladin en-Vec'
p4754
ag1632
ag1627
ag4479
aS'Firestorm'
p4755
ag3310
aS'Verdant Force'
p4756
aS'Spirit of the Night'
p4757
ag1604
ag4738
ag3731
aS'Survival of the Fittest'
p4758
aS'Rainbow Efreet'
p4759
aS'Scroll Rack'
p4760
aS'Reflecting Pool'
p4761
ag1614
ag1758
ag1556
aS'Cataclysm'
p4762
ag1637
aS'Tithe'
p4763
aS'Recurring Nightmare'
p4764
atp4765
Rp4766
sS'Amonkhet Promos'
p4767
g1
((lp4768
S'Glory-Bound Initiate'
p4769
aS'Heaven // Earth'
p4770
aS'Shadow of the Grave'
p4771
aS'Fetid Pools'
p4772
aS'Prowling Serpopard'
p4773
aS'Sheltered Thicket'
p4774
aS'Sandwurm Convergence'
p4775
aS'Hapatra, Vizier of Poisons'
p4776
aS'Bounty of the Luxa'
p4777
aS'Heart-Piercer Manticore'
p4778
aS'New Perspectives'
p4779
aS'Aven Mindcensor'
p4780
aS"Hazoret's Favor"
p4781
aS'Canyon Slough'
p4782
aS'Approach of the Second Sun'
p4783
aS'Temmet, Vizier of Naktamun'
p4784
aS'Plague Belcher'
p4785
aS'Cut // Ribbons'
p4786
aS'Cascading Cataracts'
p4787
aS'Glyph Keeper'
p4788
aS'Throne of the God-Pharaoh'
p4789
aS'Honored Hydra'
p4790
aS'Commit // Memory'
p4791
aS'Never // Return'
p4792
aS'Neheb, the Worthy'
p4793
aS'Harsh Mentor'
p4794
aS'Scattered Groves'
p4795
aS'Sweltering Suns'
p4796
aS'Pull from Tomorrow'
p4797
aS'Soul-Scar Mage'
p4798
aS"Gideon's Intervention"
p4799
aS"Oracle's Vault"
p4800
aS'Failure // Comply'
p4801
aS'Channeler Initiate'
p4802
aS'Anointed Procession'
p4803
aS'Dispossess'
p4804
aS'Irrigated Farmland'
p4805
aS'Archfiend of Ifnir'
p4806
aS'Mouth // Feed'
p4807
aS'Rags // Riches'
p4808
aS'Dusk // Dawn'
p4809
aS'Glorybringer'
p4810
aS'Harvest Season'
p4811
aS'Drake Haven'
p4812
aS'Dread Wanderer'
p4813
aS'Pyramid of the Pantheon'
p4814
aS'Curator of Mysteries'
p4815
aS'Prepare // Fight'
p4816
aS'Insult // Injury'
p4817
aS'Regal Caracal'
p4818
ag3100
aS'Vizier of Many Faces'
p4819
aS'Champion of Rhonas'
p4820
atp4821
Rp4822
sS'Limited Edition Beta'
p4823
g1
((lp4824
g1694
ag1695
ag1696
ag1698
ag1699
ag1565
ag1700
ag1701
ag1702
ag1703
ag1544
ag1781
ag2603
ag1770
ag1705
ag1706
ag2604
ag1707
ag1708
ag1728
ag1753
ag1710
ag2605
ag1552
ag1554
ag1716
ag1721
ag1558
ag2606
ag1559
ag1560
ag2607
ag2608
ag1597
ag2609
ag2610
ag1720
ag1563
ag1722
ag1723
ag1724
ag1725
ag1726
ag1697
ag1709
ag2611
ag1729
ag1730
ag1731
ag1577
ag1759
ag1611
ag1733
ag2612
ag1734
ag1601
ag1763
ag1588
ag1738
ag1607
ag1739
ag1740
ag1592
ag1538
ag1742
ag1732
ag2613
ag1736
ag2614
ag1746
ag1747
ag1603
ag1718
ag1749
ag1751
ag1606
ag1778
ag2615
ag1754
ag1755
ag1756
ag1757
ag1614
ag1758
ag2616
ag1760
ag1761
ag1762
ag1737
ag1618
ag1765
ag1625
ag1766
ag1767
ag1626
ag1768
ag1769
ag2617
ag2618
ag1772
ag2619
ag1773
ag2620
ag1748
ag1774
ag1775
ag1776
ag1735
ag1750
ag2621
ag1779
ag1780
ag2622
ag1782
ag1637
ag2623
ag1639
atp4825
Rp4826
sS'Launch Parties'
p4827
g1
((lp4828
g4083
ag1944
ag1948
aS'Vexing Shusher'
p4829
aS'Knight of New Alara'
p4830
ag1845
atp4831
Rp4832
sS'HarperPrism Book Promos'
p4833
g1
((lp4834
S'Giant Badger'
p4835
aS'Arena'
p4836
aS'Sewers of Estark'
p4837
aS'Mana Crypt'
p4838
aS'Windseeker Centaur'
p4839
atp4840
Rp4841
sS'Duel Decks: Izzet vs. Golgari'
p4842
g1
((lp4843
g1259
ag272
ag2517
ag1271
aS"Twilight's Call"
p4844
ag20
ag4509
ag2956
aS'Doomgape'
p4845
ag4235
atp4846
Rp4847
sS'Magic 2010 Promos'
p4848
g1
((lp4849
S'Naya Sojourners'
p4850
ag1064
ag1098
aS'Mycoid Shepherd'
p4851
atp4852
Rp4853
sS'Saviors of Kamigawa'
p4854
g1
((lp4855
S'Erayo, Soratami Ascendant '
p4856
aS'Homura, Human Ascendant '
p4857
aS'Enduring Ideal'
p4858
aS'Eternal Dominion'
p4859
aS'Endless Swarm'
p4860
aS"Hidetsugu's Second Rite"
p4861
atp4862
Rp4863
sS'Mirrodin Besieged Promos'
p4864
g1
((lp4865
g90
ag4617
aS'Mirran Crusader'
p4866
atp4867
Rp4868
sS'Resale Promos'
p4869
g1
((lp4870
g977
ag4574
aS"Angel of Glory's Rise"
p4871
ag577
ag2203
ag1010
ag108
ag1118
ag4396
aS'Retaliator Griffin'
p4872
ag4054
ag4442
ag1196
aS'Bristling Hydra'
p4873
aS'Sunblast Angel'
p4874
ag1800
ag596
aS'Angelic Skirmisher'
p4875
atp4876
Rp4877
sS'Duel Decks Anthology: Garruk vs. Liliana'
p4878
g1
((lp4879
g1973
ag753
ag2305
ag1212
ag3089
ag1977
atp4880
Rp4881
sS'Magic 2013 Promos'
p4882
g1
((lp4883
g1211
ag1193
ag1213
ag1220
atp4884
Rp4885
sS'Hour of Devastation'
p4886
g1
((lp4887
S'Grind '
p4888
aS'Leave '
p4889
aS'Refuse '
p4890
aS'Driven '
p4891
aS'Reason '
p4892
atp4893
Rp4894
sS'Judge Gift Cards 1998'
p4895
g1
((lp4896
S"Gaea's Cradle"
p4897
aS'Stroke of Genius'
p4898
aS'Lightning Bolt'
p4899
atp4900
Rp4901
sS'Modern Masters 2017'
p4902
g1
((lp4903
g3712
ag1850
ag755
ag310
ag3714
ag275
ag290
aS'Falkenrath Aristocrat'
p4904
ag2269
atp4905
Rp4906
sS'Modern Masters 2015'
p4907
g1
((lp4908
g1413
ag2515
aS"All Suns' Dawn"
p4909
aS'Ghost Council of Orzhova'
p4910
ag1274
aS'Lodestone Golem'
p4911
ag4263
ag3834
ag99
aS'Daybreak Coronet'
p4912
ag4564
aS'Midnight Banshee'
p4913
aS'Horde of Notions'
p4914
ag704
ag2283
aS'Lodestone Myr'
p4915
ag774
aS'Precursor Golem'
p4916
aS'Wilt-Leaf Liege'
p4917
aS'Battlegrace Angel'
p4918
aS'Creakwood Liege'
p4919
aS'Long-Forgotten Gohei'
p4920
ag3613
ag4866
ag7
aS'Etched Monstrosity'
p4921
ag2696
aS'Indomitable Archangel'
p4922
aS'Inexorable Tide'
p4923
ag4273
ag1064
aS'Profane Command'
p4924
ag95
ag2764
ag345
ag2925
ag1855
ag1492
aS'Thunderblust'
p4925
ag4530
ag2964
aS'Swans of Bryn Argoll'
p4926
aS'Spikeshot Elder'
p4927
ag2804
ag1968
ag2463
ag1130
ag22
ag98
ag2710
aS'Chimeric Mass'
p4928
aS'Eye of Ugin'
p4929
ag1144
atp4930
Rp4931
sS'Duels of the Planeswalkers'
p4932
g1
((lp4933
g1371
ag2771
ag1364
ag2768
atp4934
Rp4935
sS'Prerelease Events'
p4936
g1
((lp4937
S'Helm of Kaldra'
p4938
ag2517
aS'False Prophet'
p4939
ag3690
atp4940
Rp4941
sS'Unstable'
p4942
g1
((lp4943
S'Steamflogger Boss'
p4944
atp4945
Rp4946
sS'Alliances'
p4947
g1
((lp4948
S'Helm of Obedience'
p4949
ag4734
aS'Floodwater Dam'
p4950
ag4735
aS"Gustha's Scepter"
p4951
ag1586
aS'Fatal Lore'
p4952
aS'Gargantuan Gorilla'
p4953
atp4954
Rp4955
sS'New Phyrexia'
p4956
g1
((lp4957
S'Hex Parasite'
p4958
aS'Glistening Oil'
p4959
ag4266
atp4960
Rp4961
sS'Time Spiral'
p4962
g1
((lp4963
g1960
aS'Gemstone Caverns'
p4964
aS'Hivestone'
p4965
ag4055
ag4530
aS'Evangelize'
p4966
aS'Lim-D\xc3\xbbl the Necromancer'
p4967
ag277
ag4728
aS'Gauntlet of Power'
p4968
atp4969
Rp4970
sS'Conspiracy'
p4971
g1
((lp4972
S"Grenzo's Rebuttal"
p4973
aS'Worldknit'
p4974
aS'Aether Searcher'
p4975
aS'Backup Plan'
p4976
ag681
aS'Exploration'
p4977
ag4052
ag882
atp4978
Rp4979
sS'Fallen Empires'
p4980
g1
((lp4981
g3308
aS'Fungal Bloom'
p4982
aS'Elvish Farmer'
p4983
ag3301
aS'Elven Lyre'
p4984
aS'Homarid Shaman'
p4985
aS'Goblin Flotilla'
p4986
aS'Dwarven Armorer'
p4987
ag1599
aS'Ebon Praetor'
p4988
aS'Hand of Justice'
p4989
atp4990
Rp4991
sS'Duel Decks: Nissa vs. Ob Nixilis'
p4992
g1
((lp4993
g2757
aS'Thicket Elemental'
p4994
ag1048
ag1913
aS'Desecration Demon'
p4995
ag4264
ag606
ag598
ag4590
ag2970
atp4996
Rp4997
sS'Hour of Devastation Promos'
p4998
g1
((lp4999
S'Wildfire Eternal'
p5000
aS'Hour of Revelation'
p5001
aS'Refuse // Cooperate'
p5002
aS'Hour of Glory'
p5003
aS'Mirage Mirror'
p5004
aS'Fraying Sanity'
p5005
aS'Driven // Despair'
p5006
aS'Nimble Obstructionist'
p5007
aS'Ramunap Hydra'
p5008
aS'Hour of Devastation'
p5009
aS'Grind // Dust'
p5010
aS"God-Pharaoh's Gift"
p5011
aS'Ammit Eternal'
p5012
aS"Oketra's Last Mercy"
p5013
aS'Hour of Promise'
p5014
aS'Resilient Khenra'
p5015
aS'Hollow One'
p5016
aS'Endless Sands'
p5017
aS'Abandoned Sarcophagus'
p5018
aS'Hostile Desert'
p5019
aS'Swarm Intelligence'
p5020
aS'Leave // Chance'
p5021
aS'Apocalypse Demon'
p5022
aS'Solemnity'
p5023
aS"Hazoret's Undying Fury"
p5024
aS"Rhonas's Last Stand"
p5025
ag2678
aS'Scavenger Grounds'
p5026
aS'Champion of Wits'
p5027
aS'Pride Sovereign'
p5028
aS'Dreamstealer'
p5029
aS'Hour of Eternity'
p5030
aS'Ramunap Excavator'
p5031
aS'Imminent Doom'
p5032
aS'Adorned Pouncer'
p5033
aS"Kefnet's Last Word"
p5034
aS'Reason // Believe'
p5035
aS'Djeru, With Eyes Open'
p5036
aS"Bontu's Last Reckoning"
p5037
aS'Torment of Hailfire'
p5038
aS'Angel of Condemnation'
p5039
aS'Earthshaker Khenra'
p5040
atp5041
Rp5042
sS'Magic Player Rewards 2010'
p5043
g1
((lp5044
S'Lightning Bolt'
p5045
aS'Bituminous Blast'
p5046
aS'Sign in Blood'
p5047
aS'Celestial Purge'
p5048
aS'Cancel'
p5049
aS'Infest'
p5050
aS'Volcanic Fallout'
p5051
aS'Harrow'
p5052
aS'Burst Lightning'
p5053
atp5054
Rp5055
sS'Magic Player Rewards 2011'
p5056
g1
((lp5057
S'Searing Blaze'
p5058
ag2392
aS'Brave the Elements'
p5059
aS'Doom Blade'
p5060
ag1133
atp5061
Rp5062
sS'Arena League 2006'
p5063
g1
((lp5064
S'Wee Dragonauts'
p5065
aS'Coiling Oracle'
p5066
aS'Castigate'
p5067
aS'Surging Flame'
p5068
atp5069
Rp5070
sS'Arena League 2005'
p5071
g1
((lp5072
S'Genju of the Spires'
p5073
aS'Okina Nightwatch'
p5074
aS'Skyknight Legionnaire'
p5075
atp5076
Rp5077
sS'Arena League 2004'
p5078
g1
((lp5079
S'Darksteel Ingot'
p5080
ag2084
aS'Glacial Ray'
p5081
atp5082
Rp5083
sS'Arena League 2003'
p5084
g1
((lp5085
S'Skirk Marauder'
p5086
aS'Elvish Aberration'
p5087
aS'Bonesplitter'
p5088
atp5089
Rp5090
sS'Arena League 2002'
p5091
g1
((lp5092
S"Man-o'-War"
p5093
ag744
ag3999
aS'Arc Lightning'
p5094
atp5095
Rp5096
sS'Champs and States'
p5097
g1
((lp5098
S'Bramblewood Paragon'
p5099
aS'Doran, the Siege Tower'
p5100
aS'Voidslime'
p5101
aS"Urza's Factory"
p5102
ag262
aS'Blood Knight'
p5103
aS'Imperious Perfect'
p5104
ag1274
aS'Rakdos Guildmage'
p5105
ag965
ag4707
ag2396
atp5106
Rp5107
sS'Arena League 2000'
p5108
g1
((lp5109
g719
aS'Uktabi Orangutan'
p5110
ag264
aS'Pillage'
p5111
ag2432
aS'Chill'
p5112
atp5113
Rp5114
sS'Exodus'
p5115
g1
((lp5116
S'Ephemeron'
p5117
aS'Fighting Chance'
p5118
aS'Entropic Specter'
p5119
aS'Exalted Dragon'
p5120
ag4483
aS'Ertai, Wizard Adept'
p5121
aS'Erratic Portal'
p5122
aS'Equilibrium'
p5123
atp5124
Rp5125
sS'Tempest Remastered'
p5126
g1
((lp5127
S'Thopter Squadron'
p5128
aS'Commander Greven il-Vec'
p5129
ag1801
aS"Legacy's Allure"
p5130
ag1368
ag4093
aS'Spike Hatcher'
p5131
aS'Recycle'
p5132
ag2730
aS'Orim, Samite Healer'
p5133
ag3781
aS'City of Traitors'
p5134
aS'Exalted Dragon'
p5135
ag1074
ag3614
aS'Selenia, Dark Angel'
p5136
aS'Krakilin'
p5137
aS'Wood Sage'
p5138
aS'Aluren'
p5139
aS'Magmasaur'
p5140
ag4099
aS'Meditate'
p5141
aS'Dracoplasm'
p5142
aS'Shaman en-Kor'
p5143
aS'Fanning the Flames'
p5144
ag4079
aS'Manabond'
p5145
ag3388
aS'Soltari Guerrillas'
p5146
aS'Flame Wave'
p5147
ag2337
ag724
ag725
aS'Coffin Queen'
p5148
aS'Kezzerdrix'
p5149
ag735
ag3372
aS"Volrath's Laboratory"
p5150
ag4111
ag2331
ag1135
ag2728
aS'Mogg Infestation'
p5151
aS'Heartwood Giant'
p5152
aS'Corpse Dance'
p5153
ag312
aS'Forbid'
p5154
aS'Ogre Shaman'
p5155
aS'Spitting Hydra'
p5156
aS'Necrologia'
p5157
aS'Silver Wyvern'
p5158
aS'Erratic Portal'
p5159
ag1370
atp5160
Rp5161
sS'Magazine Inserts'
p5162
g1
((lp5163
S'Warmonger'
p5164
aS'Spined Wurm'
p5165
aS'Phyrexian Rager'
p5166
aS'Scent of Cinder'
p5167
aS'Blue Elemental Blast'
p5168
ag3429
aS'Silver Drake'
p5169
aS'Lightning Hounds'
p5170
atp5171
Rp5172
sS'Mirrodin'
p5173
g1
((lp5174
g1937
ag1151
aS'Broodstar'
p5175
ag3089
aS'Fatespinner'
p5176
aS'Glissa Sunseeker'
p5177
ag2733
aS"Liar's Pendulum"
p5178
aS'Grid Monitor'
p5179
aS'Mindslaver'
p5180
ag2917
aS'Solar Tide'
p5181
aS'Psychogenic Probe'
p5182
aS'Vulshok Battlemaster'
p5183
aS'Proteus Staff'
p5184
aS'Soul Foundry'
p5185
aS'Tower of Champions'
p5186
aS'Arc-Slogger'
p5187
ag1946
ag3080
ag2015
ag1162
aS'Extraplanar Lens'
p5188
aS'Dross Harvester'
p5189
aS'Jinxed Choker'
p5190
aS'Altar of Shadows'
p5191
aS'Timesifter'
p5192
aS'Tower of Murmurs'
p5193
aS'Tangleroot'
p5194
aS'Loxodon Peacekeeper'
p5195
aS'Fiery Gambit'
p5196
aS'Nightmare Lash'
p5197
aS'Leveler'
p5198
aS'Loxodon Punisher'
p5199
ag4631
aS'Tower of Fortunes'
p5200
aS'Vedalken Archmage'
p5201
aS'War Elemental'
p5202
aS'Spellweaver Helix'
p5203
aS'Sword of Kaldra'
p5204
ag93
aS'Temporal Cascade'
p5205
aS'Hum of the Radix'
p5206
ag2918
ag1219
aS'Vermiculos'
p5207
aS'Quicksilver Elemental'
p5208
ag2776
aS'Scythe of the Wretched'
p5209
aS'Mass Hysteria'
p5210
aS'Lumengrid Augur'
p5211
aS'Second Sunrise'
p5212
aS"Krark's Thumb"
p5213
ag4598
ag4915
aS'Tower of Eons'
p5214
ag2765
aS'Copperhoof Vorrac'
p5215
aS'Quicksilver Fountain'
p5216
aS'Auriok Steelshaper'
p5217
aS'Leonin Abunas'
p5218
aS'Gate to the Aether'
p5219
aS'Confusion in the Ranks'
p5220
aS'Living Hive'
p5221
aS'Nim Devourer'
p5222
ag2919
ag1950
aS'Trash for Treasure'
p5223
aS'Shared Fate'
p5224
aS'Lightning Coils'
p5225
ag3567
aS'Megatog'
p5226
aS'Grim Reminder'
p5227
aS'Spoils of the Vault'
p5228
aS'Leonin Sun Standard'
p5229
aS'Molder Slug'
p5230
ag1174
aS'Mesmeric Orb'
p5231
aS'Clockwork Dragon'
p5232
ag3571
aS'Rule of Law'
p5233
ag2805
ag1139
aS'Culling Scales'
p5234
aS'Necrogen Mists'
p5235
aS'Damping Matrix'
p5236
ag3084
ag2789
atp5237
Rp5238
sS'Global Series Jiang Yanggu & Mu Yanling'
p5239
g1
((lp5240
S'Ancestor Dragon'
p5241
aS'Screeching Phoenix'
p5242
aS'Rhythmic Water Vortex'
p5243
aS'Journey for the Elixir'
p5244
atp5245
Rp5246
sS'Wizards Play Network 2010'
p5247
g1
((lp5248
S'Plague Stinger'
p5249
aS'Sylvan Ranger'
p5250
aS'Leatherback Baloth'
p5251
aS'Syphon Mind'
p5252
ag2580
aS'Curse of Wizardry'
p5253
aS'Skinrender'
p5254
aS'Kor Firewalker'
p5255
aS'Pathrazer of Ulamog'
p5256
aS"Golem's Heart"
p5257
atp5258
Rp5259
sS'Wizards Play Network 2011'
p5260
g1
((lp5261
S'Circle of Flame'
p5262
aS'Vault Skirge'
p5263
aS'Plague Myr'
p5264
aS'Auramancer'
p5265
aS'Bloodcrazed Neonate'
p5266
ag5250
ag2580
aS'Shrine of Burning Rage'
p5267
aS'Tormented Soul'
p5268
aS'Boneyard Wurm'
p5269
aS'Maul Splicer'
p5270
aS"Master's Call"
p5271
aS'Curse of the Bloody Tome'
p5272
aS'Signal Pest'
p5273
atp5274
Rp5275
sS'Wizards Play Network 2012'
p5276
g1
((lp5277
S'Gather the Townsfolk'
p5278
aS'Curse of Thirst'
p5279
aS'Nearheath Stalker'
p5280
atp5281
Rp5282
sS'Modern Event Deck 2014'
p5283
g1
((lp5284
S'Windbrisk Heights'
p5285
aS'Vault of the Archangel'
p5286
ag1098
ag541
ag1942
ag1044
ag2859
atp5287
Rp5288
sS'Magic Origins Clash Pack'
p5289
g1
((lp5290
g3622
ag613
ag574
atp5291
Rp5292
sS"Urza's Saga"
p5293
g1
((lp5294
S'Citanul Hierophants'
p5295
ag4897
aS'Metrognome'
p5296
aS'Hidden Herd'
p5297
aS'Catastrophe'
p5298
aS'Grafted Skullcap'
p5299
aS'Witch Engine'
p5300
aS'Shivan Hellkite'
p5301
aS'Child of Gaea'
p5302
aS'Great Whale'
p5303
ag4480
aS'Rune of Protection: Lands'
p5304
aS'Argothian Wurm'
p5305
ag4898
aS'Herald of Serra'
p5306
aS'Gamble'
p5307
aS'Angelic Chorus'
p5308
aS'Crater Hellion'
p5309
aS'Smokestack'
p5310
aS'Greener Pastures'
p5311
aS'Brand'
p5312
aS'Bedlam'
p5313
aS'Recantation'
p5314
aS'Whetstone'
p5315
aS'Elite Archers'
p5316
aS'Phyrexian Tower'
p5317
aS'Greater Good'
p5318
aS'Temporal Aperture'
p5319
aS'Sporogenesis'
p5320
aS'Okk'
p5321
aS'Veiled Crocodile'
p5322
aS'Argothian Enchantress'
p5323
ag4489
aS'Rumbling Crescendo'
p5324
aS'Viashino Sandswimmer'
p5325
aS'Purging Scythe'
p5326
ag1998
aS'Sleeper Agent'
p5327
aS'Chimeric Staff'
p5328
aS'Attunement'
p5329
aS"Serra's Liturgy"
p5330
aS'Oppression'
p5331
aS'Tainted Aether'
p5332
aS'Citanul Centaurs'
p5333
aS'Show and Tell'
p5334
aS'Hidden Stag'
p5335
aS'Exploration'
p5336
aS'Opal Archangel'
p5337
aS'Faith Healer'
p5338
aS'Citanul Flute'
p5339
aS'Umbilicus'
p5340
aS'Lotus Blossom'
p5341
aS'Sneak Attack'
p5342
aS'Phyrexian Colossus'
p5343
aS"Mishra's Helix"
p5344
aS'Zephid'
p5345
aS'Back to Basics'
p5346
aS'Pariah'
p5347
aS'Lurking Evil'
p5348
aS'Soul Sculptor'
p5349
aS'Vernal Bloom'
p5350
aS'Noetic Scales'
p5351
aS'Midsummer Revel'
p5352
aS'Sunder'
p5353
ag4478
aS'Abundance'
p5354
aS'Discordant Dirge'
p5355
aS'Western Paladin'
p5356
aS'Imaginary Pet'
p5357
aS'Lifeline'
p5358
aS'Endless Wurm'
p5359
aS'Fault Line'
p5360
aS'Scoria Wurm'
p5361
aS'Opal Titan'
p5362
aS'Lightning Dragon'
p5363
aS'Somnophore'
p5364
aS"Serra's Sanctum"
p5365
aS'Sulfuric Vapors'
p5366
aS'Antagonism'
p5367
aS'Gilded Drake'
p5368
aS'Glorious Anthem'
p5369
aS'Planar Birth'
p5370
aS'Vebulid'
p5371
aS'Tolarian Academy'
p5372
aS'Contamination'
p5373
aS'Barrin, Master Wizard'
p5374
aS'Darkest Hour'
p5375
aS'Abyssal Horror'
p5376
ag3403
aS'Bulwark'
p5377
aS'Energy Field'
p5378
ag2000
aS'Remembrance'
p5379
aS'Electryte'
p5380
aS'Worship'
p5381
aS'Dark Hatchling'
p5382
aS'Intrepid Hero'
p5383
aS"Barrin's Codex"
p5384
aS'Phyrexian Processor'
p5385
aS'Fluctuator'
p5386
aS'Eastern Paladin'
p5387
aS'Reprocess'
p5388
aS'Morphling'
p5389
aS'Time Spiral'
p5390
aS'Whirlwind'
p5391
aS'Shivan Gorge'
p5392
aS'Hidden Predators'
p5393
aS'Ill-Gotten Gains'
p5394
aS'Copper Gnomes'
p5395
aS'Drifting Djinn'
p5396
atp5397
Rp5398
sS'XLN Treasure Chest'
p5399
g1
((lp5400
g3240
ag3241
aS'Treasure Map '
p5401
ag3222
ag3225
ag3202
ag3214
ag3215
ag3216
ag3218
ag3219
atp5402
Rp5403
sS'Shadows over Innistrad'
p5404
g1
((lp5405
g3116
ag3131
ag3119
ag3161
ag3150
ag3120
ag3153
ag3135
aS'Hanweir Militia Captain '
p5406
ag3171
aS'Geier Reach Bandit '
p5407
ag3168
ag3169
ag3133
ag3154
ag3142
ag3157
aS'Elusive Tormentor '
p5408
atp5409
Rp5410
sS'Duel Decks: Ajani vs. Nicol Bolas'
p5411
g1
((lp5412
g1909
ag2545
ag3045
ag4924
aS'Titanic Ultimatum'
p5413
aS'Ageless Entity'
p5414
ag1252
ag1258
ag2566
ag3052
atp5415
Rp5416
sS'Weatherlight'
p5417
g1
((lp5418
S'Goblin Bomb'
p5419
ag1598
aS'Heart of Bogardan'
p5420
ag4752
aS'Fungus Elemental'
p5421
aS'Heat Stroke'
p5422
ag4755
aS'B\xc3\xb6sium Strip'
p5423
aS"Ertai's Familiar"
p5424
aS'Gallowbraid'
p5425
atp5426
Rp5427
sS'Masters Edition'
p5428
g1
((lp5429
S'Forcefield'
p5430
ag4318
aS'Serendib Efreet'
p5431
aS'M\xc3\xa1rton Stromgald'
p5432
aS'Ivory Tower'
p5433
aS'Thrull Champion'
p5434
ag4090
aS'Argivian Archaeologist'
p5435
aS'Hecatomb'
p5436
aS'Phelddagrif'
p5437
aS"Varchild's War-Riders"
p5438
aS'Moat'
p5439
ag4096
ag3810
aS'Winter Orb'
p5440
aS'Adun Oakenshield'
p5441
aS'Khab\xc3\xa1l Ghoul'
p5442
aS'Tornado'
p5443
aS'Mirror Universe'
p5444
aS'Polar Kraken'
p5445
aS'Serpent Generator'
p5446
aS'Dakkon Blackblade'
p5447
aS'Vesuvan Doppelganger'
p5448
ag4101
aS'Diamond Valley'
p5449
aS'Island of Wak-Wak'
p5450
aS'Diminishing Returns'
p5451
aS"Ring of Ma'r\xc3\xbbf"
p5452
aS"Tawnos's Coffin"
p5453
aS'Goblin Wizard'
p5454
aS'Rainbow Vale'
p5455
aS'Petra Sphinx'
p5456
aS'Contagion'
p5457
aS'Baron Sengir'
p5458
ag2012
ag4319
ag4105
aS'Ydwen Efreet'
p5459
aS'Jacques le Vert'
p5460
aS'Eureka'
p5461
aS'Lord of Tresserhorn'
p5462
aS'Amnesia'
p5463
ag3780
ag1091
aS'Su-Chi'
p5464
aS'Juz\xc3\xa1m Djinn'
p5465
aS'Ifh-B\xc3\xadff Efreet'
p5466
aS'Pox'
p5467
aS'Illusions of Grandeur'
p5468
aS'Autumn Willow'
p5469
aS'Hand of Justice'
p5470
aS'Preacher'
p5471
ag2003
aS'Seraph'
p5472
aS'Time Elemental'
p5473
aS'Chains of Mephistopheles'
p5474
aS'Gargantuan Gorilla'
p5475
ag548
aS'Primal Order'
p5476
aS'Mana Flare'
p5477
atp5478
Rp5479
sS'Duel Decks: Venser vs. Koth'
p5480
g1
((lp5481
S'Galepowder Mage'
p5482
aS"Journeyer's Kite"
p5483
ag968
aS'Lithophage'
p5484
ag4874
ag1919
ag2754
aS'Windreaver'
p5485
ag1168
aS'Volley of Boulders'
p5486
atp5487
Rp5488
sS'Duel Decks: Elves vs. Inventors'
p5489
g1
((lp5490
g3340
ag4173
ag3320
ag1191
aS'Darksteel Plate'
p5491
ag1162
ag1072
ag3538
aS'Regal Force'
p5492
ag4617
ag1023
ag615
aS"Talara's Battalion"
p5493
ag1024
ag4275
ag617
atp5494
Rp5495
sS"Urza's Destiny"
p5496
g1
((lp5497
S'Impatience'
p5498
aS'Rofellos, Llanowar Emissary'
p5499
aS'Repercussion'
p5500
aS'Tethered Griffin'
p5501
aS'Pattern of Rebirth'
p5502
aS'Donate'
p5503
ag4485
aS'Opalescence'
p5504
aS'Academy Rector'
p5505
ag4488
aS'Temporal Adept'
p5506
aS'Ancient Silverback'
p5507
ag4939
aS'Master Healer'
p5508
aS'Metalworker'
p5509
aS'Body Snatcher'
p5510
aS'Rayne, Academy Chancellor'
p5511
aS'Junk Diver'
p5512
aS'Opposition'
p5513
aS'Aura Thief'
p5514
aS'Goblin Festival'
p5515
aS'Plow Under'
p5516
aS'Treachery'
p5517
aS'Emperor Crocodile'
p5518
ag4491
aS'Goblin Marshal'
p5519
aS'Carnival of Souls'
p5520
aS'Apprentice Necromancer'
p5521
aS'Blizzard Elemental'
p5522
aS'Scrying Glass'
p5523
aS'Wake of Destruction'
p5524
aS'Bloodshot Cyclops'
p5525
aS'Thran Golem'
p5526
ag4481
aS"Yawgmoth's Bargain"
p5527
aS'Thorn Elemental'
p5528
aS'Storage Matrix'
p5529
ag4484
aS'Elvish Piper'
p5530
aS'Yavimaya Hollow'
p5531
aS'Flicker'
p5532
aS'Replenish'
p5533
aS"Urza's Incubator"
p5534
aS'Attrition'
p5535
atp5536
Rp5537
sS'Unlimited Edition'
p5538
g1
((lp5539
g1694
ag1695
ag1696
ag1698
ag1699
ag1565
ag1700
ag1701
ag1702
ag1703
ag1544
ag1781
ag2603
ag1770
ag1705
ag1706
ag2604
ag1707
ag1708
ag1728
ag1753
ag1710
ag2605
ag1552
ag1554
ag1716
ag1721
ag1558
ag2606
ag1559
ag1560
ag2607
ag2608
ag1597
ag2609
ag2610
ag1720
ag1563
ag1722
ag1723
ag1724
ag1725
ag1726
ag1697
ag1709
ag2611
ag1729
ag1730
ag1731
ag1577
ag1759
ag1611
ag1733
ag2612
ag1734
ag1601
ag1763
ag1588
ag1738
ag1607
ag1739
ag1740
ag1592
ag1538
ag1742
ag1732
ag2613
ag1736
ag2614
ag1746
ag1747
ag1603
ag1718
ag1749
ag1751
ag1606
ag1778
ag2615
ag1754
ag1755
ag1756
ag1757
ag1614
ag1758
ag2616
ag1760
ag1761
ag1762
ag1737
ag1618
ag1765
ag1625
ag1766
ag1767
ag1626
ag1768
ag1769
ag2617
ag2618
ag1772
ag2619
ag1773
ag2620
ag1748
ag1774
ag1775
ag1776
ag1735
ag1750
ag2621
ag1779
ag1780
ag2622
ag1782
ag1637
ag2623
ag1639
atp5540
Rp5541
sS'Starter 1999'
p5542
g1
((lp5543
S'Goblin Hero'
p5544
ag4143
aS'Grim Tutor'
p5545
aS"Gerrard's Wisdom"
p5546
atp5547
Rp5548
sS'Kaladesh Promos'
p5549
g1
((lp5550
g2628
ag2629
aS"Smuggler's Copter"
p5551
aS'Panharmonicon'
p5552
aS'Botanical Sanctum'
p5553
ag2631
aS'Metalwork Colossus'
p5554
aS'Aethersquall Ancient'
p5555
aS'Key to the City'
p5556
aS'Confiscation Coup'
p5557
aS'Madcap Experiment'
p5558
aS'Oviya Pashiri, Sage Lifecrafter'
p5559
aS'Midnight Oil'
p5560
aS'Kambal, Consul of Allocation'
p5561
aS'Blooming Marsh'
p5562
aS'Lathnu Hellion'
p5563
aS'Inspiring Vantage'
p5564
aS'Bomat Courier'
p5565
aS'Animation Module'
p5566
aS'Architect of the Untamed'
p5567
aS'Master Trinketeer'
p5568
aS'Aetherflux Reservoir'
p5569
aS'Territorial Gorger'
p5570
aS'Captured by the Consulate'
p5571
ag2630
ag4657
aS'Paradoxical Outcome'
p5572
aS'Concealed Courtyard'
p5573
aS'Toolcraft Exemplar'
p5574
aS'Pia Nalaar'
p5575
aS"Cultivator's Caravan"
p5576
aS'Depala, Pilot Exemplar'
p5577
aS'Authority of the Consuls'
p5578
aS'Padeem, Consul of Innovation'
p5579
ag2634
aS'Deadlock Trap'
p5580
aS'Lost Legacy'
p5581
aS'Syndicate Trafficker'
p5582
aS'Multiform Wonder'
p5583
aS'Scrapheap Scrounger'
p5584
aS'Wildest Dreams'
p5585
aS"Inventors' Fair"
p5586
ag4873
aS'Spirebluff Canal'
p5587
aS'Insidious Will'
p5588
aS'Aetherstorm Roc'
p5589
aS'Cultivator of Blades'
p5590
ag2632
ag2633
aS'Skyship Stalker'
p5591
ag2635
ag2636
aS'Marionette Master'
p5592
atp5593
Rp5594
sS'Alara Reborn'
p5595
g1
((lp5596
S'Fight to the Death'
p5597
ag3265
ag3669
ag4531
ag4634
atp5598
Rp5599
sS'Guildpact'
p5600
g1
((lp5601
g2903
aS'Dune-Brood Nephilim'
p5602
ag4910
aS'Graven Dominator'
p5603
aS'Hatching Plans'
p5604
aS'Ghostway'
p5605
aS'Gruul War Plow'
p5606
aS'Earth Surge'
p5607
ag3588
ag4599
atp5608
Rp5609
sS'Planechase 2012'
p5610
g1
((lp5611
g3253
ag3254
ag3255
ag3256
ag2011
ag3257
ag3258
ag3259
ag1154
ag3260
ag3261
ag97
ag877
ag3262
ag3263
ag2958
ag1851
ag2289
ag3264
ag130
ag1858
ag3265
ag341
ag2547
ag3266
ag2766
ag3267
ag3268
atp5612
Rp5613
sS'Avacyn Restored'
p5614
g1
((lp5615
S"Druids' Repository"
p5616
aS'Exquisite Blood'
p5617
ag1917
aS'Dual Casting'
p5618
aS'Gloom Surgeon'
p5619
aS'Hound of Griselbrand'
p5620
aS'Gallows at Willow Hill'
p5621
aS'Herald of War'
p5622
atp5623
Rp5624
sS'15th Anniversary Cards'
p5625
g1
((lp5626
g1282
ag2785
atp5627
Rp5628
sS'Masters Edition III'
p5629
g1
((lp5630
S'Life Chisel'
p5631
aS'Sun Quan, Lord of Wu'
p5632
aS'Liu Bei, Lord of Shu'
p5633
ag459
ag4070
ag460
aS'Hellfire'
p5634
aS'Arcades Sabboth'
p5635
aS'Gwendlyn Di Corci'
p5636
ag270
aS'Mind Twist'
p5637
aS'Grim Tutor'
p5638
aS'The Abyss'
p5639
aS'Black Vise'
p5640
aS'Meng Huo, Barbarian King'
p5641
aS'Cleanse'
p5642
aS'Mana Vortex'
p5643
ag3828
aS'Gabriel Angelfire'
p5644
aS'Rohgahh of Kher Keep'
p5645
ag273
ag479
aS'Tetsuo Umezawa'
p5646
aS'Akron Legionnaire'
p5647
aS"Sorrow's Path"
p5648
aS'Angus Mackenzie'
p5649
aS'Arboria'
p5650
ag4533
ag489
aS'Palladia-Mors'
p5651
aS'City of Shadows'
p5652
aS'Halfdane'
p5653
aS'Old Man of the Sea'
p5654
aS'Zodiac Dragon'
p5655
aS'Dong Zhou, the Tyrant'
p5656
aS'Lu Bu, Master-at-Arms'
p5657
aS"Barl's Cage"
p5658
aS'The Tabernacle at Pendrell Vale'
p5659
aS'Chromium'
p5660
aS'Arena of the Ancients'
p5661
aS'Reset'
p5662
ag754
aS'Bazaar of Baghdad'
p5663
ag263
aS'Nether Void'
p5664
aS'Willow Satyr'
p5665
aS"Freyalise's Winds"
p5666
ag3835
aS'Divine Intervention'
p5667
aS'Concordant Crossroads'
p5668
aS'Living Plane'
p5669
ag543
ag274
aS'Nova Pentacle'
p5670
aS'Sword of the Ages'
p5671
aS'Voodoo Doll'
p5672
ag280
aS'Storm World'
p5673
aS'Vaevictis Asmadi'
p5674
aS'Hazezon Tamar'
p5675
aS'Rasputin Dreamweaver'
p5676
aS"Guan Yu's 1,000-Li March"
p5677
aS'Wandering Mage'
p5678
aS'Gauntlets of Chaos'
p5679
aS'Rolling Earthquake'
p5680
aS'Land Equilibrium'
p5681
ag3778
aS'Cosmic Horror'
p5682
aS'Firestorm Phoenix'
p5683
ag4117
atp5684
Rp5685
sS'Duel Decks: Blessed vs. Cursed'
p5686
g1
((lp5687
g3717
aS'Increasing Devotion'
p5688
aS'Unbreathing Horde'
p5689
ag1917
aS'Captain of the Mists'
p5690
ag4277
ag3183
aS'Champion of the Parish'
p5691
ag3153
aS'Dearly Departed'
p5692
atp5693
Rp5694
sS'Legendary Cube'
p5695
g1
((lp5696
g4262
aS'Deadly Tempest'
p5697
ag2016
aS'Loyal Retainers'
p5698
ag4538
ag4312
aS'Meren of Clan Nel Toth'
p5699
aS'Toxic Deluge'
p5700
aS'Mirror Match'
p5701
ag3535
ag3067
aS'Sandstone Oracle'
p5702
ag4276
ag2015
ag2014
ag681
aS'Verdant Confluence'
p5703
ag4541
aS'Arjun, the Shifting Flame'
p5704
ag93
ag278
ag4288
aS'Temple of the False God'
p5705
ag3551
aS'Karlov of the Ghost Council'
p5706
ag3836
aS'Titania, Protector of Argoth'
p5707
aS'Awaken the Sky Tyrant'
p5708
aS'Scytheclaw'
p5709
aS'Kalemne, Disciple of Iroas'
p5710
aS'Seal of the Guildpact'
p5711
aS'Mizzix of the Izmagnus'
p5712
aS'Synthetic Destiny'
p5713
ag4539
ag2009
aS'Rite of the Raging Storm'
p5714
aS'Thief of Blood'
p5715
aS'Vela the Night-Clad'
p5716
aS'Rhystic Study'
p5717
aS'Illusory Ambusher'
p5718
ag3820
ag1437
aS'Anya, Merciless Angel'
p5719
aS"Daxos's Torment"
p5720
ag2010
ag2011
aS'Ezuri, Claw of Progress'
p5721
ag2012
aS"Mizzix's Mastery"
p5722
ag4308
aS'Righteous Confluence'
p5723
aS'Kaseto, Orochi Archmage'
p5724
aS'Meteor Blast'
p5725
ag3580
aS'Mazirek, Kraul Death Priest'
p5726
ag3793
aS'Corpse Augur'
p5727
ag2293
ag2013
ag3574
aS'Daxos the Returned'
p5728
ag3579
aS'Containment Priest'
p5729
ag4313
atp5730
Rp5731
sS'Scourge'
p5732
g1
((lp5733
S'Force Bubble'
p5734
aS'Faces of the Past'
p5735
aS'Grip of Chaos'
p5736
ag1912
ag1474
aS'Exiled Doomsayer'
p5737
ag3079
ag3383
atp5738
Rp5739
sS'Welcome Deck 2017'
p5740
g1
((lp5741
g2488
ag3572
ag298
ag956
ag529
atp5742
Rp5743
sS'Welcome Deck 2016'
p5744
g1
((lp5745
g2488
ag1020
ag956
ag3862
ag529
atp5746
Rp5747
sS'Lorwyn'
p5748
g1
((lp5749
g4600
aS'Gilt-Leaf Palace'
p5750
ag2696
ag1196
aS'Fathom Trawl'
p5751
ag2697
aS'Heat Shimmer'
p5752
ag12
aS'Howltooth Hollow'
p5753
ag5482
aS'Forced Fruition'
p5754
ag4914
aS'Eyes of the Wisent'
p5755
aS'Garruk Wildspeaker'
p5756
ag4619
aS'Favor of the Mighty'
p5757
atp5758
Rp5759
sS'Duel Decks: Mind vs. Might'
p5760
g1
((lp5761
g627
ag197
ag3318
ag1203
aS'Rubblebelt Raiders'
p5762
aS'Increasing Savagery'
p5763
aS'Deep-Sea Kraken'
p5764
ag1074
ag567
ag2367
ag2785
aS'Radha, Heir to Keld'
p5765
aS'Beacon of Tomorrows'
p5766
ag2739
ag1873
ag192
ag5493
ag716
ag1001
atp5767
Rp5768
sS'Fifth Dawn'
p5769
g1
((lp5770
g4938
aS'Eon Hub'
p5771
ag4568
ag4546
ag19
aS'Endless Whispers'
p5772
aS'Granulate'
p5773
atp5774
Rp5775
sS'Friday Night Magic 2007'
p5776
g1
((lp5777
S'Goblin Ringleader'
p5778
aS'Deep Analysis'
p5779
aS'Firebolt'
p5780
aS'Goblin Legionnaire'
p5781
aS'Basking Rootwalla'
p5782
aS'Wing Shards'
p5783
aS'Cabal Coffers'
p5784
aS"Gerrard's Verdict"
p5785
aS'Force Spike'
p5786
aS'Engineered Plague'
p5787
aS'Roar of the Wurm'
p5788
aS'Wonder'
p5789
atp5790
Rp5791
sS'Friday Night Magic 2006'
p5792
g1
((lp5793
S'Arrogant Wurm'
p5794
aS'Fire '
p5795
ag4024
aS'Astral Slide'
p5796
aS'Circular Logic'
p5797
aS'Fire // Ice'
p5798
aS"Chainer's Edict"
p5799
aS'Elves of Deep Shadow'
p5800
ag2099
aS'Wild Mongrel'
p5801
aS'Life // Death'
p5802
aS'Armadillo Cloak'
p5803
aS'Lobotomy'
p5804
atp5805
Rp5806
sS'Friday Night Magic 2005'
p5807
g1
((lp5808
S'Circle of Protection: Red'
p5809
aS'Cabal Therapy'
p5810
ag287
aS'Flametongue Kavu'
p5811
aS'Blastoderm'
p5812
aS'Kird Ape'
p5813
aS'Rancor'
p5814
ag2432
aS'Fact or Fiction'
p5815
aS'Juggernaut'
p5816
aS'Icy Manipulator'
p5817
aS'Seal of Cleansing'
p5818
atp5819
Rp5820
sS'Friday Night Magic 2004'
p5821
g1
((lp5822
S'Lightning Rift'
p5823
aS'Silver Knight'
p5824
ag11
ag710
aS'Carrion Feeder'
p5825
aS'Mother of Runes'
p5826
aS'Treetop Village'
p5827
aS'Slice and Dice'
p5828
aS'Accumulated Knowledge'
p5829
ag730
ag291
aS'Krosan Warchief'
p5830
atp5831
Rp5832
sS'Friday Night Magic 2003'
p5833
g1
((lp5834
g718
aS'Sparksmith'
p5835
aS'Capsize'
p5836
ag711
aS'Priest of Titania'
p5837
aS'Smother'
p5838
aS'Bottle Gnomes'
p5839
aS'Goblin Bombardment'
p5840
aS'Krosan Tusker'
p5841
ag700
aS'Muscle Sliver'
p5842
aS'Whipcorder'
p5843
aS'Crystalline Sliver'
p5844
atp5845
Rp5846
sS'Friday Night Magic 2002'
p5847
g1
((lp5848
S'Fireslinger'
p5849
aS'White Knight'
p5850
ag707
ag5154
aS'Albino Troll'
p5851
aS'Aura of Silence'
p5852
ag2670
aS'Wall of Blossoms'
p5853
aS'Black Knight'
p5854
aS'Dissipate'
p5855
aS'Drain Life'
p5856
ag746
atp5857
Rp5858
sS'Friday Night Magic 2001'
p5859
g1
((lp5860
S'Ophidian'
p5861
aS'Carnophage'
p5862
aS'Jackal Pup'
p5863
aS'Quirion Ranger'
p5864
aS'Impulse'
p5865
ag3805
aS'Fireblast'
p5866
atp5867
Rp5868
sS'Friday Night Magic 2000'
p5869
g1
((lp5870
g751
aS'Shock'
p5871
aS'River Boa'
p5872
aS'Mind Warp'
p5873
aS'Volcanic Geyser'
p5874
aS'Stone Rain'
p5875
ag3998
ag2673
ag2002
aS'Longbow Archer'
p5876
aS'Staunch Defenders'
p5877
atp5878
Rp5879
sS'Friday Night Magic 2009'
p5880
g1
((lp5881
S'Magma Jet'
p5882
aS'Merrow Reejerey'
p5883
aS'Watchwolf'
p5884
aS'Murderous Redcap'
p5885
aS'Oblivion Ring'
p5886
aS'Mulldrifter'
p5887
aS'Kitchen Finks'
p5888
ag705
ag1645
aS'Myr Enforcer'
p5889
aS'Lightning Greaves'
p5890
aS"Wren's Run Vanquisher"
p5891
atp5892
Rp5893
sS'Friday Night Magic 2008'
p5894
g1
((lp5895
S'Isochron Scepter'
p5896
ag741
aS'Tendrils of Agony'
p5897
aS'Remand'
p5898
ag792
aS'Thirst for Knowledge'
p5899
ag708
ag714
aS'Shrapnel Blast'
p5900
ag759
ag742
aS'Eternal Witness'
p5901
atp5902
Rp5903
sS'Magic Online Promos'
p5904
g1
((lp5905
g1471
ag2354
ag1364
ag455
ag2517
ag4556
ag628
ag1013
ag460
ag2016
ag4395
ag358
ag3675
ag601
ag2355
ag571
ag4183
ag1350
aS'Rupture'
p5906
ag4866
ag4938
ag3828
ag1029
ag4413
ag479
ag3344
ag12
ag4083
ag994
ag378
aS'Avatar of Discord'
p5907
ag1133
ag3690
aS"Lion's Eye Diamond"
p5908
ag637
ag4229
ag567
ag1213
aS'Wheel and Deal'
p5909
ag5470
ag2306
ag2097
ag3641
ag500
ag1683
ag3638
ag134
ag3980
ag2326
ag618
aS'Stone-Tongue Basilisk'
p5910
ag4318
ag3105
ag1461
ag1462
ag259
ag1931
ag4360
ag3842
ag3787
ag35
aS'Doomsday'
p5911
ag4094
ag3621
ag4135
ag5439
aS'Undiscovered Paradise'
p5912
ag513
ag3132
ag2009
ag297
ag407
ag2417
ag1432
ag4257
ag782
ag674
ag3141
ag4707
ag1950
aS'Wave of Reckoning'
p5913
ag3826
aS'Windseeker Centaur'
p5914
aS'Sewers of Estark'
p5915
ag2348
aS'Silent Specter'
p5916
ag3022
ag4189
ag2338
ag3320
ag3633
ag529
ag3156
ag989
ag536
ag800
ag2304
ag3639
ag5474
aS'Sandsteppe Citadel'
p5917
ag1253
ag2303
ag612
ag1352
ag5471
ag3246
ag3107
ag1287
ag4477
ag2472
ag2666
ag624
ag3819
ag785
ag459
ag5435
ag4328
ag1374
ag587
ag704
aS'Overtaker'
p5918
ag3198
ag568
ag5637
ag3930
ag3496
ag640
ag5639
ag3779
ag642
ag4830
aS'True-Name Nemesis'
p5919
ag2332
ag1949
ag3183
ag3028
ag1346
ag3339
ag1891
ag2356
ag2015
ag1086
ag4193
aS'Monstrous Hound'
p5920
ag3698
ag494
ag3780
ag3349
ag3936
ag4054
ag489
ag384
ag5466
ag3793
ag1680
ag848
ag5654
ag93
ag508
ag2892
ag275
ag2003
ag3788
ag5657
ag2710
ag2824
ag3119
ag3502
ag2653
aS'Grindstone'
p5921
ag506
ag3776
ag1644
ag472
aS'Korlash, Heir to Blackblade'
p5922
ag3951
ag2013
ag965
ag767
ag2803
ag3931
ag5440
aS'Thunder Spirit'
p5923
ag2827
aS'Time Spiral'
p5924
ag404
ag2220
ag47
ag1262
ag1845
ag2654
ag3048
ag970
ag2358
aS'Rathi Assassin'
p5925
ag2312
ag648
ag3804
ag3700
ag4103
ag5100
ag834
ag7
ag646
ag2021
ag4179
ag5458
ag4518
ag3343
ag3387
ag605
aS'Kiyomaro, First to Stand'
p5926
ag3928
ag2096
ag1274
ag1091
ag2023
ag5461
aS'Avacyn, Angel of Hope'
p5927
ag3589
ag2413
ag2368
ag271
ag569
ag424
ag4810
ag4196
ag2711
aS'Skyship Weatherlight'
p5928
ag2014
ag613
ag1035
ag1284
ag2313
ag572
ag3106
ag3929
ag617
ag4117
ag516
ag3117
ag1347
ag279
ag1348
ag1922
ag298
ag1661
ag2866
ag262
ag2366
ag563
ag2655
ag3266
ag1156
aS'Two-Headed Giant of Foriys'
p5929
ag590
ag4005
ag4872
ag4617
ag3213
ag1089
ag712
aS'Ryusei, the Falling Star'
p5930
ag2454
ag115
ag3883
ag3158
ag3032
ag716
ag555
ag3834
ag4377
ag1030
ag401
ag3629
ag4829
ag1064
ag3507
ag4800
ag4806
ag3019
ag3934
ag484
ag4977
ag5431
ag2360
ag3634
ag2424
ag3187
ag1053
ag2961
ag5101
ag387
ag147
ag1944
ag1283
ag783
ag386
ag5591
ag4201
ag3655
ag2756
ag3920
ag3913
ag1490
ag3318
ag4165
ag2343
ag4292
ag260
ag4428
ag461
ag3932
ag4046
ag4685
ag3326
aS'Overbeing of Myth'
p5931
ag3623
ag3835
aS'Dirtcowl Wurm'
p5932
ag515
ag3697
ag405
ag1349
ag574
ag1502
ag519
ag2652
ag3079
ag2361
ag5717
ag1466
ag4451
ag4574
ag615
ag5457
ag1271
ag1788
ag1918
ag1890
aS'Nalathni Dragon'
p5933
ag343
ag1463
ag1464
ag1225
ag655
ag4421
ag5659
ag1353
ag1913
ag2353
aS'Giant Badger'
p5934
ag2331
ag2414
ag5031
ag2325
ag4452
ag2102
ag2240
ag1056
ag1282
ag2709
ag3933
ag5159
ag5453
ag2359
ag2099
ag578
ag2898
ag2911
ag592
ag3186
ag3777
ag917
ag5000
ag557
ag3025
ag1010
ag955
ag2474
ag2723
ag307
ag2311
ag339
ag4090
ag3622
ag4092
ag3810
ag1018
ag2935
ag1009
ag3696
ag3329
ag322
ag16
ag3184
ag3699
ag1948
ag4184
ag2004
ag113
ag579
ag742
ag1276
ag626
ag2227
ag558
ag1226
ag145
ag4416
ag656
ag4624
ag1098
ag5648
ag481
ag607
aS'Unsubstantiate'
p5935
ag4056
ag488
ag1125
ag1892
ag90
ag5204
ag4426
ag584
ag2278
ag278
ag1968
ag2324
ag388
ag1104
ag2785
ag296
ag5477
ag97
ag3712
ag4684
aS'Shield of Kaldra'
p5936
ag3139
ag504
ag958
aS'Reflecting Pool'
p5937
ag3485
ag261
ag3674
ag5664
ag1193
ag1351
ag3786
ag3778
ag2367
ag2841
ag1048
ag3626
ag1248
ag17
ag1941
ag4407
ag2323
ag3332
ag1079
ag4851
ag10
ag1393
ag1893
ag5094
ag974
ag499
ag4657
ag977
ag1437
ag4442
ag2305
ag5675
ag2337
ag2012
ag1392
ag2951
ag2814
ag2286
ag2910
ag3575
aS'Raging Kavu'
p5938
ag3157
ag1211
ag3680
ag845
ag839
ag3935
ag408
ag5033
ag3625
ag541
ag3515
ag2805
ag5590
ag3803
ag543
ag4060
ag4182
ag548
ag4514
ag1220
ag550
atp5939
Rp5940
sS'Legacy Championship'
p5941
g1
((lp5942
g291
ag3810
atp5943
Rp5944
sS'Duel Decks: Merfolk vs. Goblins'
p5945
g1
((lp5946
g955
ag1069
ag1013
ag205
ag586
ag1197
ag3080
ag1106
ag3048
aS'Wake Thrasher'
p5947
ag1387
ag3168
ag1947
ag1865
ag1202
ag1143
ag1083
ag999
atp5948
Rp5949
sS'Duels of the Planeswalkers Promos 2013'
p5950
g1
((lp5951
g985
ag959
ag989
atp5952
Rp5953
s.